; ModuleID = 'test32.bc'
source_filename = "builtins/builtins-c-genx.cpp"
target datalayout = "e-p:32:32-i64:64-n8:16:32"
target triple = "genx32-unknown-linux-gnu"

%class.ArgWriter = type { i32, i32*, i32, i32, i64 }
%class.UniformWriter = type { i32*, i32**, i32, i64, <5 x i32> }
%class.VaryingWriter = type { i32*, i32**, i32, i64, <5 x i32> }
%"struct.PrintInfo::Encoding4Uniform" = type { i8 }
%"struct.PrintInfo::Encoding4Varying" = type { i8 }

$_ZN7details13__impl_divremILi1EEEu2CMvbT__cS1_S1_u2CMvrT__c = comdat any

$_ZN7details13__impl_divremILi2EEEu2CMvbT__cS1_S1_u2CMvrT__c = comdat any

$_ZN7details13__impl_divremILi4EEEu2CMvbT__cS1_S1_u2CMvrT__c = comdat any

$_ZN7details13__impl_divremILi8EEEu2CMvbT__cS1_S1_u2CMvrT__c = comdat any

$_ZN7details13__impl_divremILi16EEEu2CMvbT__cS1_S1_u2CMvrT__c = comdat any

$_ZN7details13__impl_divremILi32EEEu2CMvbT__cS1_S1_u2CMvrT__c = comdat any

$_ZN7details13__impl_divremILi1EEEu2CMvbT__sS1_S1_u2CMvrT__s = comdat any

$_ZN7details13__impl_divremILi2EEEu2CMvbT__sS1_S1_u2CMvrT__s = comdat any

$_ZN7details13__impl_divremILi4EEEu2CMvbT__sS1_S1_u2CMvrT__s = comdat any

$_ZN7details13__impl_divremILi8EEEu2CMvbT__sS1_S1_u2CMvrT__s = comdat any

$_ZN7details13__impl_divremILi16EEEu2CMvbT__sS1_S1_u2CMvrT__s = comdat any

$_ZN7details13__impl_divremILi32EEEu2CMvbT__sS1_S1_u2CMvrT__s = comdat any

$_ZN7details13__impl_divremILi1EEEu2CMvbT__iS1_S1_u2CMvrT__j = comdat any

$_ZN7details13__impl_divremILi2EEEu2CMvbT__iS1_S1_u2CMvrT__j = comdat any

$_ZN7details13__impl_divremILi4EEEu2CMvbT__iS1_S1_u2CMvrT__j = comdat any

$_ZN7details13__impl_divremILi8EEEu2CMvbT__iS1_S1_u2CMvrT__j = comdat any

$_ZN7details13__impl_divremILi16EEEu2CMvbT__iS1_S1_u2CMvrT__j = comdat any

$_ZN7details13__impl_divremILi32EEEu2CMvbT__iS1_S1_u2CMvrT__j = comdat any

$_ZN7details14__impl_udivremILi1EEEu2CMvbT__hS1_S1_u2CMvrT__h = comdat any

$_ZN7details14__impl_udivremILi2EEEu2CMvbT__hS1_S1_u2CMvrT__h = comdat any

$_ZN7details14__impl_udivremILi4EEEu2CMvbT__hS1_S1_u2CMvrT__h = comdat any

$_ZN7details14__impl_udivremILi8EEEu2CMvbT__hS1_S1_u2CMvrT__h = comdat any

$_ZN7details14__impl_udivremILi16EEEu2CMvbT__hS1_S1_u2CMvrT__h = comdat any

$_ZN7details14__impl_udivremILi32EEEu2CMvbT__hS1_S1_u2CMvrT__h = comdat any

$_ZN7details14__impl_udivremILi1EEEu2CMvbT__tS1_S1_u2CMvrT__t = comdat any

$_ZN7details14__impl_udivremILi2EEEu2CMvbT__tS1_S1_u2CMvrT__t = comdat any

$_ZN7details14__impl_udivremILi4EEEu2CMvbT__tS1_S1_u2CMvrT__t = comdat any

$_ZN7details14__impl_udivremILi8EEEu2CMvbT__tS1_S1_u2CMvrT__t = comdat any

$_ZN7details14__impl_udivremILi16EEEu2CMvbT__tS1_S1_u2CMvrT__t = comdat any

$_ZN7details14__impl_udivremILi32EEEu2CMvbT__tS1_S1_u2CMvrT__t = comdat any

$_ZN7details14__impl_udivremILi1EEEu2CMvbT__jS1_S1_u2CMvrT__j = comdat any

$_ZN7details14__impl_udivremILi2EEEu2CMvbT__jS1_S1_u2CMvrT__j = comdat any

$_ZN7details14__impl_udivremILi4EEEu2CMvbT__jS1_S1_u2CMvrT__j = comdat any

$_ZN7details14__impl_udivremILi8EEEu2CMvbT__jS1_S1_u2CMvrT__j = comdat any

$_ZN7details14__impl_udivremILi16EEEu2CMvbT__jS1_S1_u2CMvrT__j = comdat any

$_ZN7details14__impl_udivremILi32EEEu2CMvbT__jS1_S1_u2CMvrT__j = comdat any

$_ZN7details21_cm_print_init_offsetE15cm_surfaceindexj = comdat any

$_ZN9ArgWriterC2EjPKjiy = comdat any

$_Z14GetFormatedStrI9ArgWriterEu2CMvb128_cPKcS3_RT_ = comdat any

$_ZN7details16_cm_print_formatILi128EEEv15cm_surfaceindexju2CMvbT__c = comdat any

$_ZN7details25_cm_print_init_offset_oclEu2CMvb1_jj = comdat any

$_Z20cm_svm_scatter_writeIiLi1EEvu2CMvbT0__ju2CMvbT0__T_ = comdat any

$_Z17get_auxiliary_strv = comdat any

$_ZN9PrintInfo14switchEncodingI13UniformWriter13VaryingWriterEEbNS_8EncodingET_T0_ = comdat any

$_ZN13UniformWriterC2ERjRPKjiyu2CMvb5_i = comdat any

$_ZN13VaryingWriterC2ERjRPKjiyu2CMvb5_i = comdat any

$_Z12write_atomicIL14CmAtomicOpType0EjLi8EENSt9enable_ifIXaaaaaaaaaaneT_LS0_7EneT_LS0_18EneT_LS0_2EneT_LS0_3EneT_LS0_255EclL_ZN7detailsL10isPowerOf2EjjET1_Li32EEEvE4typeE15cm_surfaceindexu2CMvbT1__ju2CMvbT1__T0_u2CMvrT1__S6_ = comdat any

$_ZN7details18is_valid_atomic_opIjL14CmAtomicOpType0ELi8EE5checkEv = comdat any

$_ZN7details16__impl_hex2floatEj = comdat any

$_Z13CopyPlainTextILj128EEiPKcu2CMvrT__cii = comdat any

$_ZN7details7Arg2StrI9ArgWriterEEu2CMvb100_ccRT_ = comdat any

$_Z12CopyFullTextILj100ELj128EEiu2CMvrT__ciu2CMvrT0__cii = comdat any

$_ZN7details11CopyTillSepIJLc37ELc0EEPKcLj128EEEiT0_iu2CMvrT1__cii = comdat any

$_ZN7details17Arg2StrIfSuitableIb9ArgWriterEEbcRT0_u2CMvr100_c = comdat any

$_ZN7details17Arg2StrIfSuitableIi9ArgWriterEEbcRT0_u2CMvr100_c = comdat any

$_ZN7details17Arg2StrIfSuitableIj9ArgWriterEEbcRT0_u2CMvr100_c = comdat any

$_ZN7details17Arg2StrIfSuitableIf9ArgWriterEEbcRT0_u2CMvr100_c = comdat any

$_ZN7details17Arg2StrIfSuitableIx9ArgWriterEEbcRT0_u2CMvr100_c = comdat any

$_ZN7details17Arg2StrIfSuitableIy9ArgWriterEEbcRT0_u2CMvr100_c = comdat any

$_ZN7details17Arg2StrIfSuitableId9ArgWriterEEbcRT0_u2CMvr100_c = comdat any

$_ZN7details17Arg2StrIfSuitableIPv9ArgWriterEEbcRT0_u2CMvr100_c = comdat any

$_ZN7details20UniArg2StrIfSuitableIb9ArgWriterEEbcRT0_u2CMvr100_c = comdat any

$_ZN7details20VarArg2StrIfSuitableIb9ArgWriterEEbcRT0_u2CMvr100_c = comdat any

$_ZN9PrintInfo19getEncoding4UniformIbEENS_8EncodingEv = comdat any

$_ZN9ArgWriter11uniform2StrIbEEDav = comdat any

$_Z12CopyFullTextILj100EEiPKcu2CMvrT__cii = comdat any

$_Z12ValueAdapterIbEDaT_ = comdat any

$_ZN9ArgWriter16GetElementaryArgEv = comdat any

$_ZN7details11CopyTillSepIJLc0EEPKcLj100EEEiT0_iu2CMvrT1__cii = comdat any

$_ZN9PrintInfo19getEncoding4VaryingIbEENS_8EncodingEv = comdat any

$_ZN9ArgWriter11varying2StrIbEEDav = comdat any

$_Z21requiredSpace4VecElemIbL9LaneState1EEiv = comdat any

$_ZN9ArgWriter19writeFormat4VecElemIbL9LaneState1EEEiu2CMvr100_ci = comdat any

$_Z21requiredSpace4VecElemIbL9LaneState0EEiv = comdat any

$_ZN9ArgWriter19writeFormat4VecElemIbL9LaneState0EEEiu2CMvr100_ci = comdat any

$_ZN9ArgWriter8WriteArgIbEEvv = comdat any

$_Z3maxIiET_S0_S0_ = comdat any

$_Z6strLenIPKcEiT_ = comdat any

$_ZN7details20UniArg2StrIfSuitableIi9ArgWriterEEbcRT0_u2CMvr100_c = comdat any

$_ZN7details20VarArg2StrIfSuitableIi9ArgWriterEEbcRT0_u2CMvr100_c = comdat any

$_ZN9PrintInfo19getEncoding4UniformIiEENS_8EncodingEv = comdat any

$_ZN9ArgWriter11uniform2StrIiEEDav = comdat any

$_Z16cmType2SpecifierIiEPKcv = comdat any

$_ZN9ArgWriter8WriteArgIiEEvv = comdat any

$_ZN9PrintInfo14type2SpecifierIiEEPKcv = comdat any

$_ZN7details18_cm_print_args_rawIiEEv15cm_surfaceindexjjj = comdat any

$_Z5writeIjLi8EEv15cm_surfaceindexiu2CMvbT0__T_ = comdat any

$_ZN9PrintInfo19getEncoding4VaryingIiEENS_8EncodingEv = comdat any

$_ZN9ArgWriter11varying2StrIiEEDav = comdat any

$_Z21requiredSpace4VecElemIiL9LaneState1EEiv = comdat any

$_ZN9ArgWriter19writeFormat4VecElemIiL9LaneState1EEEiu2CMvr100_ci = comdat any

$_Z21requiredSpace4VecElemIiL9LaneState0EEiv = comdat any

$_ZN9ArgWriter19writeFormat4VecElemIiL9LaneState0EEEiu2CMvr100_ci = comdat any

$_ZN7details20UniArg2StrIfSuitableIj9ArgWriterEEbcRT0_u2CMvr100_c = comdat any

$_ZN7details20VarArg2StrIfSuitableIj9ArgWriterEEbcRT0_u2CMvr100_c = comdat any

$_ZN9PrintInfo19getEncoding4UniformIjEENS_8EncodingEv = comdat any

$_ZN9ArgWriter11uniform2StrIjEEDav = comdat any

$_Z16cmType2SpecifierIjEPKcv = comdat any

$_ZN9ArgWriter8WriteArgIjEEvv = comdat any

$_ZN9PrintInfo14type2SpecifierIjEEPKcv = comdat any

$_ZN7details18_cm_print_args_rawIjEEv15cm_surfaceindexjjj = comdat any

$_ZN9PrintInfo19getEncoding4VaryingIjEENS_8EncodingEv = comdat any

$_ZN9ArgWriter11varying2StrIjEEDav = comdat any

$_Z21requiredSpace4VecElemIjL9LaneState1EEiv = comdat any

$_ZN9ArgWriter19writeFormat4VecElemIjL9LaneState1EEEiu2CMvr100_ci = comdat any

$_Z21requiredSpace4VecElemIjL9LaneState0EEiv = comdat any

$_ZN9ArgWriter19writeFormat4VecElemIjL9LaneState0EEEiu2CMvr100_ci = comdat any

$_ZN7details20UniArg2StrIfSuitableIf9ArgWriterEEbcRT0_u2CMvr100_c = comdat any

$_ZN7details20VarArg2StrIfSuitableIf9ArgWriterEEbcRT0_u2CMvr100_c = comdat any

$_ZN9PrintInfo19getEncoding4UniformIfEENS_8EncodingEv = comdat any

$_ZN9ArgWriter11uniform2StrIfEEDav = comdat any

$_Z16cmType2SpecifierIfEPKcv = comdat any

$_ZN9ArgWriter8WriteArgIfEEvv = comdat any

$_ZN9PrintInfo14type2SpecifierIfEEPKcv = comdat any

$_ZN7details18_cm_print_args_rawIfEEv15cm_surfaceindexjjj = comdat any

$_ZN9PrintInfo19getEncoding4VaryingIfEENS_8EncodingEv = comdat any

$_ZN9ArgWriter11varying2StrIfEEDav = comdat any

$_Z21requiredSpace4VecElemIfL9LaneState1EEiv = comdat any

$_ZN9ArgWriter19writeFormat4VecElemIfL9LaneState1EEEiu2CMvr100_ci = comdat any

$_Z21requiredSpace4VecElemIfL9LaneState0EEiv = comdat any

$_ZN9ArgWriter19writeFormat4VecElemIfL9LaneState0EEEiu2CMvr100_ci = comdat any

$_ZN7details20UniArg2StrIfSuitableIx9ArgWriterEEbcRT0_u2CMvr100_c = comdat any

$_ZN7details20VarArg2StrIfSuitableIx9ArgWriterEEbcRT0_u2CMvr100_c = comdat any

$_ZN9PrintInfo19getEncoding4UniformIxEENS_8EncodingEv = comdat any

$_ZN9ArgWriter11uniform2StrIxEEDav = comdat any

$_Z16cmType2SpecifierIxEPKcv = comdat any

$_ZN9ArgWriter8WriteArgIxEEvv = comdat any

$_ZN9PrintInfo14type2SpecifierIxEEPKcv = comdat any

$_ZN7details18_cm_print_args_rawIxEEv15cm_surfaceindexjjj = comdat any

$_ZN9PrintInfo19getEncoding4VaryingIxEENS_8EncodingEv = comdat any

$_ZN9ArgWriter11varying2StrIxEEDav = comdat any

$_Z21requiredSpace4VecElemIxL9LaneState1EEiv = comdat any

$_ZN9ArgWriter19writeFormat4VecElemIxL9LaneState1EEEiu2CMvr100_ci = comdat any

$_Z21requiredSpace4VecElemIxL9LaneState0EEiv = comdat any

$_ZN9ArgWriter19writeFormat4VecElemIxL9LaneState0EEEiu2CMvr100_ci = comdat any

$_ZN7details20UniArg2StrIfSuitableIy9ArgWriterEEbcRT0_u2CMvr100_c = comdat any

$_ZN7details20VarArg2StrIfSuitableIy9ArgWriterEEbcRT0_u2CMvr100_c = comdat any

$_ZN9PrintInfo19getEncoding4UniformIyEENS_8EncodingEv = comdat any

$_ZN9ArgWriter11uniform2StrIyEEDav = comdat any

$_Z16cmType2SpecifierIyEPKcv = comdat any

$_ZN9ArgWriter8WriteArgIyEEvv = comdat any

$_ZN9PrintInfo14type2SpecifierIyEEPKcv = comdat any

$_ZN7details18_cm_print_args_rawIyEEv15cm_surfaceindexjjj = comdat any

$_ZN9PrintInfo19getEncoding4VaryingIyEENS_8EncodingEv = comdat any

$_ZN9ArgWriter11varying2StrIyEEDav = comdat any

$_Z21requiredSpace4VecElemIyL9LaneState1EEiv = comdat any

$_ZN9ArgWriter19writeFormat4VecElemIyL9LaneState1EEEiu2CMvr100_ci = comdat any

$_Z21requiredSpace4VecElemIyL9LaneState0EEiv = comdat any

$_ZN9ArgWriter19writeFormat4VecElemIyL9LaneState0EEEiu2CMvr100_ci = comdat any

$_ZN7details20UniArg2StrIfSuitableId9ArgWriterEEbcRT0_u2CMvr100_c = comdat any

$_ZN7details20VarArg2StrIfSuitableId9ArgWriterEEbcRT0_u2CMvr100_c = comdat any

$_ZN9PrintInfo19getEncoding4UniformIdEENS_8EncodingEv = comdat any

$_ZN9ArgWriter11uniform2StrIdEEDav = comdat any

$_Z16cmType2SpecifierIdEPKcv = comdat any

$_ZN9ArgWriter8WriteArgIdEEvv = comdat any

$_ZN9PrintInfo14type2SpecifierIdEEPKcv = comdat any

$_ZN7details18_cm_print_args_rawIdEEv15cm_surfaceindexjjj = comdat any

$_ZN9PrintInfo19getEncoding4VaryingIdEENS_8EncodingEv = comdat any

$_ZN9ArgWriter11varying2StrIdEEDav = comdat any

$_Z21requiredSpace4VecElemIdL9LaneState1EEiv = comdat any

$_ZN9ArgWriter19writeFormat4VecElemIdL9LaneState1EEEiu2CMvr100_ci = comdat any

$_Z21requiredSpace4VecElemIdL9LaneState0EEiv = comdat any

$_ZN9ArgWriter19writeFormat4VecElemIdL9LaneState0EEEiu2CMvr100_ci = comdat any

$_ZN7details20UniArg2StrIfSuitableIPv9ArgWriterEEbcRT0_u2CMvr100_c = comdat any

$_ZN7details20VarArg2StrIfSuitableIPv9ArgWriterEEbcRT0_u2CMvr100_c = comdat any

$_ZN9PrintInfo19getEncoding4UniformIPvEENS_8EncodingEv = comdat any

$_ZN9ArgWriter11uniform2StrIPvEEDav = comdat any

$_Z16cmType2SpecifierIPvEPKcv = comdat any

$_ZN9ArgWriter8WriteArgIPvEEvv = comdat any

$_ZN9PrintInfo19getEncoding4VaryingIPvEENS_8EncodingEv = comdat any

$_ZN9ArgWriter11varying2StrIPvEEDav = comdat any

$_Z21requiredSpace4VecElemIPvL9LaneState1EEiv = comdat any

$_ZN9ArgWriter19writeFormat4VecElemIPvL9LaneState1EEEiu2CMvr100_ci = comdat any

$_Z21requiredSpace4VecElemIPvL9LaneState0EEiv = comdat any

$_ZN9ArgWriter19writeFormat4VecElemIPvL9LaneState0EEEiu2CMvr100_ci = comdat any

$_ZN7details11CopyTillSepIJLc0EELj100ELj128EEEiu2CMvrT0__ciu2CMvrT1__cii = comdat any

$_Z5writeIcLi128EEv15cm_surfaceindexiu2CMvbT0__T_ = comdat any

$_ZN7details25cm_svm_scatter_write_implIiLi1EEENSt9enable_ifIXclL_ZNS_L10isPowerOf2EjjET0_Li32EEEvE4typeEu2CMvbT0__ju2CMvbT0__T_ = comdat any

$_ZN9PrintInfo22switchEncoding4UniformI13UniformWriterEEbNS_8EncodingET_ = comdat any

$_ZN9PrintInfo22switchEncoding4VaryingI13VaryingWriterEEbNS_8EncodingET_ = comdat any

$_ZN9PrintInfo6detail14switchEncodingI13UniformWriterNS_16Encoding4UniformEEEbNS_8EncodingET_T0_ = comdat any

$_ZN9PrintInfo6detail21applyIfProperEncodingIb13UniformWriterNS_16Encoding4UniformEEEbNS_8EncodingET0_T1_ = comdat any

$_ZN9PrintInfo6detail21applyIfProperEncodingIi13UniformWriterNS_16Encoding4UniformEEEbNS_8EncodingET0_T1_ = comdat any

$_ZN9PrintInfo6detail21applyIfProperEncodingIj13UniformWriterNS_16Encoding4UniformEEEbNS_8EncodingET0_T1_ = comdat any

$_ZN9PrintInfo6detail21applyIfProperEncodingIf13UniformWriterNS_16Encoding4UniformEEEbNS_8EncodingET0_T1_ = comdat any

$_ZN9PrintInfo6detail21applyIfProperEncodingIx13UniformWriterNS_16Encoding4UniformEEEbNS_8EncodingET0_T1_ = comdat any

$_ZN9PrintInfo6detail21applyIfProperEncodingIy13UniformWriterNS_16Encoding4UniformEEEbNS_8EncodingET0_T1_ = comdat any

$_ZN9PrintInfo6detail21applyIfProperEncodingId13UniformWriterNS_16Encoding4UniformEEEbNS_8EncodingET0_T1_ = comdat any

$_ZN9PrintInfo6detail21applyIfProperEncodingIPv13UniformWriterNS_16Encoding4UniformEEEbNS_8EncodingET0_T1_ = comdat any

$_ZNK9PrintInfo16Encoding4Uniform4callIbEENS_8EncodingEv = comdat any

$_ZN13UniformWriter4callIbEEvv = comdat any

$_ZN13UniformWriter8WriteArgIbEEvv = comdat any

$_ZN13UniformWriter16GetElementaryArgEv = comdat any

$_ZN7details18_cm_print_type_oclIRA1_KcEENS_18SHADER_PRINTF_TYPEEv = comdat any

$_Z20cm_svm_scatter_writeIjLi1EEvu2CMvbT0__ju2CMvbT0__T_ = comdat any

$_ZN7details25cm_svm_scatter_write_implIjLi1EEENSt9enable_ifIXclL_ZNS_L10isPowerOf2EjjET0_Li32EEEvE4typeEu2CMvbT0__ju2CMvbT0__T_ = comdat any

$_ZNK9PrintInfo16Encoding4Uniform4callIiEENS_8EncodingEv = comdat any

$_ZN13UniformWriter4callIiEEvv = comdat any

$_ZN13UniformWriter8WriteArgIiEEvv = comdat any

$_ZN7details18_cm_print_type_oclIiEENS_18SHADER_PRINTF_TYPEEv = comdat any

$_ZNK9PrintInfo16Encoding4Uniform4callIjEENS_8EncodingEv = comdat any

$_ZN13UniformWriter4callIjEEvv = comdat any

$_ZN13UniformWriter8WriteArgIjEEvv = comdat any

$_ZN7details18_cm_print_type_oclIjEENS_18SHADER_PRINTF_TYPEEv = comdat any

$_ZNK9PrintInfo16Encoding4Uniform4callIfEENS_8EncodingEv = comdat any

$_ZN13UniformWriter4callIfEEvv = comdat any

$_ZN13UniformWriter8WriteArgIfEEvv = comdat any

$_ZN7details18_cm_print_type_oclIfEENS_18SHADER_PRINTF_TYPEEv = comdat any

$_ZNK9PrintInfo16Encoding4Uniform4callIxEENS_8EncodingEv = comdat any

$_ZN13UniformWriter4callIxEEvv = comdat any

$_ZN13UniformWriter8WriteArgIxEEvv = comdat any

$_ZN7details18_cm_print_type_oclIxEENS_18SHADER_PRINTF_TYPEEv = comdat any

$_Z20cm_svm_scatter_writeIjLi2EEvu2CMvbT0__ju2CMvbT0__T_ = comdat any

$_ZN7details25cm_svm_scatter_write_implIjLi2EEENSt9enable_ifIXclL_ZNS_L10isPowerOf2EjjET0_Li32EEEvE4typeEu2CMvbT0__ju2CMvbT0__T_ = comdat any

$_ZNK9PrintInfo16Encoding4Uniform4callIyEENS_8EncodingEv = comdat any

$_ZN13UniformWriter4callIyEEvv = comdat any

$_ZN13UniformWriter8WriteArgIyEEvv = comdat any

$_ZN7details18_cm_print_type_oclIyEENS_18SHADER_PRINTF_TYPEEv = comdat any

$_ZNK9PrintInfo16Encoding4Uniform4callIdEENS_8EncodingEv = comdat any

$_ZN13UniformWriter4callIdEEvv = comdat any

$_ZN13UniformWriter8WriteArgIdEEvv = comdat any

$_ZN7details18_cm_print_type_oclIdEENS_18SHADER_PRINTF_TYPEEv = comdat any

$_ZNK9PrintInfo16Encoding4Uniform4callIPvEENS_8EncodingEv = comdat any

$_ZN13UniformWriter4callIPvEEvv = comdat any

$_ZN13UniformWriter8WriteArgIPvEEvv = comdat any

$_ZN7details18_cm_print_type_oclIPvEENS_18SHADER_PRINTF_TYPEEv = comdat any

$_ZN9PrintInfo6detail14switchEncodingI13VaryingWriterNS_16Encoding4VaryingEEEbNS_8EncodingET_T0_ = comdat any

$_ZN9PrintInfo6detail21applyIfProperEncodingIb13VaryingWriterNS_16Encoding4VaryingEEEbNS_8EncodingET0_T1_ = comdat any

$_ZN9PrintInfo6detail21applyIfProperEncodingIi13VaryingWriterNS_16Encoding4VaryingEEEbNS_8EncodingET0_T1_ = comdat any

$_ZN9PrintInfo6detail21applyIfProperEncodingIj13VaryingWriterNS_16Encoding4VaryingEEEbNS_8EncodingET0_T1_ = comdat any

$_ZN9PrintInfo6detail21applyIfProperEncodingIf13VaryingWriterNS_16Encoding4VaryingEEEbNS_8EncodingET0_T1_ = comdat any

$_ZN9PrintInfo6detail21applyIfProperEncodingIx13VaryingWriterNS_16Encoding4VaryingEEEbNS_8EncodingET0_T1_ = comdat any

$_ZN9PrintInfo6detail21applyIfProperEncodingIy13VaryingWriterNS_16Encoding4VaryingEEEbNS_8EncodingET0_T1_ = comdat any

$_ZN9PrintInfo6detail21applyIfProperEncodingId13VaryingWriterNS_16Encoding4VaryingEEEbNS_8EncodingET0_T1_ = comdat any

$_ZN9PrintInfo6detail21applyIfProperEncodingIPv13VaryingWriterNS_16Encoding4VaryingEEEbNS_8EncodingET0_T1_ = comdat any

$_ZNK9PrintInfo16Encoding4Varying4callIbEENS_8EncodingEv = comdat any

$_ZN13VaryingWriter4callIbEEvv = comdat any

$_ZN13VaryingWriter8WriteArgIbEEvv = comdat any

$_ZN13VaryingWriter12WriteVecElemIbEEvv = comdat any

$_ZNK9PrintInfo16Encoding4Varying4callIiEENS_8EncodingEv = comdat any

$_ZN13VaryingWriter4callIiEEvv = comdat any

$_ZN13VaryingWriter8WriteArgIiEEvv = comdat any

$_ZN13VaryingWriter12WriteVecElemIiEEvv = comdat any

$_ZNK9PrintInfo16Encoding4Varying4callIjEENS_8EncodingEv = comdat any

$_ZN13VaryingWriter4callIjEEvv = comdat any

$_ZN13VaryingWriter8WriteArgIjEEvv = comdat any

$_ZN13VaryingWriter12WriteVecElemIjEEvv = comdat any

$_ZNK9PrintInfo16Encoding4Varying4callIfEENS_8EncodingEv = comdat any

$_ZN13VaryingWriter4callIfEEvv = comdat any

$_ZN13VaryingWriter8WriteArgIfEEvv = comdat any

$_ZN13VaryingWriter12WriteVecElemIfEEvv = comdat any

$_ZNK9PrintInfo16Encoding4Varying4callIxEENS_8EncodingEv = comdat any

$_ZN13VaryingWriter4callIxEEvv = comdat any

$_ZN13VaryingWriter8WriteArgIxEEvv = comdat any

$_ZN13VaryingWriter12WriteVecElemIxEEvv = comdat any

$_ZNK9PrintInfo16Encoding4Varying4callIyEENS_8EncodingEv = comdat any

$_ZN13VaryingWriter4callIyEEvv = comdat any

$_ZN13VaryingWriter8WriteArgIyEEvv = comdat any

$_ZN13VaryingWriter12WriteVecElemIyEEvv = comdat any

$_ZNK9PrintInfo16Encoding4Varying4callIdEENS_8EncodingEv = comdat any

$_ZN13VaryingWriter4callIdEEvv = comdat any

$_ZN13VaryingWriter8WriteArgIdEEvv = comdat any

$_ZN13VaryingWriter12WriteVecElemIdEEvv = comdat any

$_ZNK9PrintInfo16Encoding4Varying4callIPvEENS_8EncodingEv = comdat any

$_ZN13VaryingWriter4callIPvEEvv = comdat any

$_ZN13VaryingWriter8WriteArgIPvEEvv = comdat any

$_ZN13VaryingWriter12WriteVecElemIPvEEvv = comdat any

@.str = private unnamed_addr constant [3 x i8] c"((\00", align 1
@.str.1 = private unnamed_addr constant [3 x i8] c"))\00", align 1
@.str.2 = private unnamed_addr constant [1 x i8] zeroinitializer, align 1
@.str.3 = private unnamed_addr constant [6 x i8] c"false\00", align 1
@.str.4 = private unnamed_addr constant [5 x i8] c"true\00", align 1
@_ZL14OffLaneBoolStr = internal constant [10 x i8] c"_________\00", align 1
@.str.5 = private unnamed_addr constant [3 x i8] c"%d\00", align 1
@.str.6 = private unnamed_addr constant [3 x i8] c"%u\00", align 1
@.str.7 = private unnamed_addr constant [3 x i8] c"%f\00", align 1
@.str.8 = private unnamed_addr constant [5 x i8] c"%lld\00", align 1
@.str.9 = private unnamed_addr constant [5 x i8] c"%llu\00", align 1
@.str.10 = private unnamed_addr constant [5 x i8] c"%08X\00", align 1

; Function Attrs: noinline nounwind
define internal signext i8 @_Z24__cm_intrinsic_impl_sdivcc(i8 signext, i8 signext) #0 {
  %3 = alloca i8, align 1
  %4 = alloca i8, align 1
  %5 = alloca <1 x i8>, align 1
  %6 = alloca <1 x i8>, align 1
  %7 = alloca <1 x i8>, align 1
  %8 = alloca <1 x i8>, align 1
  store i8 %0, i8* %3, align 1, !tbaa !7
  store i8 %1, i8* %4, align 1, !tbaa !7
  %9 = load i8, i8* %3, align 1, !tbaa !7
  %10 = insertelement <1 x i8> undef, i8 %9, i32 0
  %11 = shufflevector <1 x i8> %10, <1 x i8> undef, <1 x i32> zeroinitializer
  store <1 x i8> %11, <1 x i8>* %5, align 1, !tbaa !7
  %12 = load i8, i8* %4, align 1, !tbaa !7
  %13 = insertelement <1 x i8> undef, i8 %12, i32 0
  %14 = shufflevector <1 x i8> %13, <1 x i8> undef, <1 x i32> zeroinitializer
  store <1 x i8> %14, <1 x i8>* %6, align 1, !tbaa !7
  %15 = load <1 x i8>, <1 x i8>* %5, align 1, !tbaa !7
  %16 = load <1 x i8>, <1 x i8>* %6, align 1, !tbaa !7
  %17 = call <1 x i8> @_ZN7details13__impl_divremILi1EEEu2CMvbT__cS1_S1_u2CMvrT__c(<1 x i8> %15, <1 x i8> %16, <1 x i8>* %7)
  store <1 x i8> %17, <1 x i8>* %8, align 1, !tbaa !7
  %18 = load <1 x i8>, <1 x i8>* %8, align 1, !tbaa !7
  %19 = call <1 x i8> @llvm.genx.rdregioni.v1i8.v1i8.i16(<1 x i8> %18, i32 0, i32 1, i32 0, i16 0, i32 undef)
  %20 = extractelement <1 x i8> %19, i32 0
  ret i8 %20
}

; Function Attrs: alwaysinline inlinehint nounwind
define internal <1 x i8> @_ZN7details13__impl_divremILi1EEEu2CMvbT__cS1_S1_u2CMvrT__c(<1 x i8>, <1 x i8>, <1 x i8>*) #1 comdat {
  %4 = alloca <1 x i8>, align 1
  %5 = alloca <1 x i8>, align 1
  %6 = alloca <1 x i8>*, align 1
  %7 = alloca <1 x i16>, align 2
  %8 = alloca <1 x i16>, align 2
  %9 = alloca <1 x i16>, align 2
  %10 = alloca <1 x i16>, align 2
  store <1 x i8> %0, <1 x i8>* %4, align 1, !tbaa !7
  store <1 x i8> %1, <1 x i8>* %5, align 1, !tbaa !7
  store <1 x i8>* %2, <1 x i8>** %6, align 1, !tbaa !7
  %11 = load <1 x i8>, <1 x i8>* %4, align 1, !tbaa !7
  %12 = sext <1 x i8> %11 to <1 x i16>
  store <1 x i16> %12, <1 x i16>* %7, align 2, !tbaa !7
  %13 = load <1 x i8>, <1 x i8>* %5, align 1, !tbaa !7
  %14 = sext <1 x i8> %13 to <1 x i16>
  store <1 x i16> %14, <1 x i16>* %8, align 2, !tbaa !7
  %15 = load <1 x i16>, <1 x i16>* %7, align 2, !tbaa !7
  %16 = load <1 x i16>, <1 x i16>* %8, align 2, !tbaa !7
  %17 = call <1 x i16> @_ZN7details13__impl_divremILi1EEEu2CMvbT__sS1_S1_u2CMvrT__s(<1 x i16> %15, <1 x i16> %16, <1 x i16>* %9)
  store <1 x i16> %17, <1 x i16>* %10, align 2, !tbaa !7
  %18 = load <1 x i16>, <1 x i16>* %9, align 2, !tbaa !7
  %19 = trunc <1 x i16> %18 to <1 x i8>
  store <1 x i8> %19, <1 x i8>* %2
  %20 = load <1 x i16>, <1 x i16>* %10, align 2, !tbaa !7
  %21 = trunc <1 x i16> %20 to <1 x i8>
  ret <1 x i8> %21
}

; Function Attrs: nounwind readnone
declare <1 x i8> @llvm.genx.rdregioni.v1i8.v1i8.i16(<1 x i8>, i32, i32, i32, i16, i32) #2

; Function Attrs: noinline nounwind
define internal <1 x i8> @_Z24__cm_intrinsic_impl_sdivu2CMvb1_cS_(<1 x i8>, <1 x i8>) #0 {
  %3 = alloca <1 x i8>, align 1
  %4 = alloca <1 x i8>, align 1
  %5 = alloca <1 x i8>, align 1
  %6 = alloca <1 x i8>, align 1
  store <1 x i8> %0, <1 x i8>* %3, align 1, !tbaa !7
  store <1 x i8> %1, <1 x i8>* %4, align 1, !tbaa !7
  %7 = load <1 x i8>, <1 x i8>* %3, align 1, !tbaa !7
  %8 = load <1 x i8>, <1 x i8>* %4, align 1, !tbaa !7
  %9 = call <1 x i8> @_ZN7details13__impl_divremILi1EEEu2CMvbT__cS1_S1_u2CMvrT__c(<1 x i8> %7, <1 x i8> %8, <1 x i8>* %5)
  store <1 x i8> %9, <1 x i8>* %6, align 1, !tbaa !7
  %10 = load <1 x i8>, <1 x i8>* %6, align 1, !tbaa !7
  ret <1 x i8> %10
}

; Function Attrs: noinline nounwind
define internal <2 x i8> @_Z24__cm_intrinsic_impl_sdivu2CMvb2_cS_(<2 x i8>, <2 x i8>) #3 {
  %3 = alloca <2 x i8>, align 2
  %4 = alloca <2 x i8>, align 2
  %5 = alloca <2 x i8>, align 2
  %6 = alloca <2 x i8>, align 2
  store <2 x i8> %0, <2 x i8>* %3, align 2, !tbaa !7
  store <2 x i8> %1, <2 x i8>* %4, align 2, !tbaa !7
  %7 = load <2 x i8>, <2 x i8>* %3, align 2, !tbaa !7
  %8 = load <2 x i8>, <2 x i8>* %4, align 2, !tbaa !7
  %9 = call <2 x i8> @_ZN7details13__impl_divremILi2EEEu2CMvbT__cS1_S1_u2CMvrT__c(<2 x i8> %7, <2 x i8> %8, <2 x i8>* %5)
  store <2 x i8> %9, <2 x i8>* %6, align 2, !tbaa !7
  %10 = load <2 x i8>, <2 x i8>* %6, align 2, !tbaa !7
  ret <2 x i8> %10
}

; Function Attrs: alwaysinline inlinehint nounwind
define internal <2 x i8> @_ZN7details13__impl_divremILi2EEEu2CMvbT__cS1_S1_u2CMvrT__c(<2 x i8>, <2 x i8>, <2 x i8>*) #4 comdat {
  %4 = alloca <2 x i8>, align 2
  %5 = alloca <2 x i8>, align 2
  %6 = alloca <2 x i8>*, align 2
  %7 = alloca <2 x i16>, align 4
  %8 = alloca <2 x i16>, align 4
  %9 = alloca <2 x i16>, align 4
  %10 = alloca <2 x i16>, align 4
  store <2 x i8> %0, <2 x i8>* %4, align 2, !tbaa !7
  store <2 x i8> %1, <2 x i8>* %5, align 2, !tbaa !7
  store <2 x i8>* %2, <2 x i8>** %6, align 2, !tbaa !7
  %11 = load <2 x i8>, <2 x i8>* %4, align 2, !tbaa !7
  %12 = sext <2 x i8> %11 to <2 x i16>
  store <2 x i16> %12, <2 x i16>* %7, align 4, !tbaa !7
  %13 = load <2 x i8>, <2 x i8>* %5, align 2, !tbaa !7
  %14 = sext <2 x i8> %13 to <2 x i16>
  store <2 x i16> %14, <2 x i16>* %8, align 4, !tbaa !7
  %15 = load <2 x i16>, <2 x i16>* %7, align 4, !tbaa !7
  %16 = load <2 x i16>, <2 x i16>* %8, align 4, !tbaa !7
  %17 = call <2 x i16> @_ZN7details13__impl_divremILi2EEEu2CMvbT__sS1_S1_u2CMvrT__s(<2 x i16> %15, <2 x i16> %16, <2 x i16>* %9)
  store <2 x i16> %17, <2 x i16>* %10, align 4, !tbaa !7
  %18 = load <2 x i16>, <2 x i16>* %9, align 4, !tbaa !7
  %19 = trunc <2 x i16> %18 to <2 x i8>
  call void @llvm.genx.vstore.v2i8.p0v2i8(<2 x i8> %19, <2 x i8>* %2)
  %20 = load <2 x i16>, <2 x i16>* %10, align 4, !tbaa !7
  %21 = trunc <2 x i16> %20 to <2 x i8>
  ret <2 x i8> %21
}

; Function Attrs: noinline nounwind
define internal <4 x i8> @_Z24__cm_intrinsic_impl_sdivu2CMvb4_cS_(<4 x i8>, <4 x i8>) #5 {
  %3 = alloca <4 x i8>, align 4
  %4 = alloca <4 x i8>, align 4
  %5 = alloca <4 x i8>, align 4
  %6 = alloca <4 x i8>, align 4
  store <4 x i8> %0, <4 x i8>* %3, align 4, !tbaa !7
  store <4 x i8> %1, <4 x i8>* %4, align 4, !tbaa !7
  %7 = load <4 x i8>, <4 x i8>* %3, align 4, !tbaa !7
  %8 = load <4 x i8>, <4 x i8>* %4, align 4, !tbaa !7
  %9 = call <4 x i8> @_ZN7details13__impl_divremILi4EEEu2CMvbT__cS1_S1_u2CMvrT__c(<4 x i8> %7, <4 x i8> %8, <4 x i8>* %5)
  store <4 x i8> %9, <4 x i8>* %6, align 4, !tbaa !7
  %10 = load <4 x i8>, <4 x i8>* %6, align 4, !tbaa !7
  ret <4 x i8> %10
}

; Function Attrs: alwaysinline inlinehint nounwind
define internal <4 x i8> @_ZN7details13__impl_divremILi4EEEu2CMvbT__cS1_S1_u2CMvrT__c(<4 x i8>, <4 x i8>, <4 x i8>*) #6 comdat {
  %4 = alloca <4 x i8>, align 4
  %5 = alloca <4 x i8>, align 4
  %6 = alloca <4 x i8>*, align 4
  %7 = alloca <4 x i16>, align 8
  %8 = alloca <4 x i16>, align 8
  %9 = alloca <4 x i16>, align 8
  %10 = alloca <4 x i16>, align 8
  store <4 x i8> %0, <4 x i8>* %4, align 4, !tbaa !7
  store <4 x i8> %1, <4 x i8>* %5, align 4, !tbaa !7
  store <4 x i8>* %2, <4 x i8>** %6, align 4, !tbaa !7
  %11 = load <4 x i8>, <4 x i8>* %4, align 4, !tbaa !7
  %12 = sext <4 x i8> %11 to <4 x i16>
  store <4 x i16> %12, <4 x i16>* %7, align 8, !tbaa !7
  %13 = load <4 x i8>, <4 x i8>* %5, align 4, !tbaa !7
  %14 = sext <4 x i8> %13 to <4 x i16>
  store <4 x i16> %14, <4 x i16>* %8, align 8, !tbaa !7
  %15 = load <4 x i16>, <4 x i16>* %7, align 8, !tbaa !7
  %16 = load <4 x i16>, <4 x i16>* %8, align 8, !tbaa !7
  %17 = call <4 x i16> @_ZN7details13__impl_divremILi4EEEu2CMvbT__sS1_S1_u2CMvrT__s(<4 x i16> %15, <4 x i16> %16, <4 x i16>* %9)
  store <4 x i16> %17, <4 x i16>* %10, align 8, !tbaa !7
  %18 = load <4 x i16>, <4 x i16>* %9, align 8, !tbaa !7
  %19 = trunc <4 x i16> %18 to <4 x i8>
  call void @llvm.genx.vstore.v4i8.p0v4i8(<4 x i8> %19, <4 x i8>* %2)
  %20 = load <4 x i16>, <4 x i16>* %10, align 8, !tbaa !7
  %21 = trunc <4 x i16> %20 to <4 x i8>
  ret <4 x i8> %21
}

; Function Attrs: noinline nounwind
define dso_local <8 x i8> @_Z24__cm_intrinsic_impl_sdivu2CMvb8_cS_(<8 x i8>, <8 x i8>) #7 {
  %3 = alloca <8 x i8>, align 8
  %4 = alloca <8 x i8>, align 8
  %5 = alloca <8 x i8>, align 8
  %6 = alloca <8 x i8>, align 8
  store <8 x i8> %0, <8 x i8>* %3, align 8, !tbaa !7
  store <8 x i8> %1, <8 x i8>* %4, align 8, !tbaa !7
  %7 = load <8 x i8>, <8 x i8>* %3, align 8, !tbaa !7
  %8 = load <8 x i8>, <8 x i8>* %4, align 8, !tbaa !7
  %9 = call <8 x i8> @_ZN7details13__impl_divremILi8EEEu2CMvbT__cS1_S1_u2CMvrT__c(<8 x i8> %7, <8 x i8> %8, <8 x i8>* %5)
  store <8 x i8> %9, <8 x i8>* %6, align 8, !tbaa !7
  %10 = load <8 x i8>, <8 x i8>* %6, align 8, !tbaa !7
  ret <8 x i8> %10
}

; Function Attrs: alwaysinline inlinehint nounwind
define internal <8 x i8> @_ZN7details13__impl_divremILi8EEEu2CMvbT__cS1_S1_u2CMvrT__c(<8 x i8>, <8 x i8>, <8 x i8>*) #8 comdat {
  %4 = alloca <8 x i8>, align 8
  %5 = alloca <8 x i8>, align 8
  %6 = alloca <8 x i8>*, align 8
  %7 = alloca <8 x i16>, align 16
  %8 = alloca <8 x i16>, align 16
  %9 = alloca <8 x i16>, align 16
  %10 = alloca <8 x i16>, align 16
  store <8 x i8> %0, <8 x i8>* %4, align 8, !tbaa !7
  store <8 x i8> %1, <8 x i8>* %5, align 8, !tbaa !7
  store <8 x i8>* %2, <8 x i8>** %6, align 8, !tbaa !7
  %11 = load <8 x i8>, <8 x i8>* %4, align 8, !tbaa !7
  %12 = sext <8 x i8> %11 to <8 x i16>
  store <8 x i16> %12, <8 x i16>* %7, align 16, !tbaa !7
  %13 = load <8 x i8>, <8 x i8>* %5, align 8, !tbaa !7
  %14 = sext <8 x i8> %13 to <8 x i16>
  store <8 x i16> %14, <8 x i16>* %8, align 16, !tbaa !7
  %15 = load <8 x i16>, <8 x i16>* %7, align 16, !tbaa !7
  %16 = load <8 x i16>, <8 x i16>* %8, align 16, !tbaa !7
  %17 = call <8 x i16> @_ZN7details13__impl_divremILi8EEEu2CMvbT__sS1_S1_u2CMvrT__s(<8 x i16> %15, <8 x i16> %16, <8 x i16>* %9)
  store <8 x i16> %17, <8 x i16>* %10, align 16, !tbaa !7
  %18 = load <8 x i16>, <8 x i16>* %9, align 16, !tbaa !7
  %19 = trunc <8 x i16> %18 to <8 x i8>
  call void @llvm.genx.vstore.v8i8.p0v8i8(<8 x i8> %19, <8 x i8>* %2)
  %20 = load <8 x i16>, <8 x i16>* %10, align 16, !tbaa !7
  %21 = trunc <8 x i16> %20 to <8 x i8>
  ret <8 x i8> %21
}

; Function Attrs: noinline nounwind
define dso_local <16 x i8> @_Z24__cm_intrinsic_impl_sdivu2CMvb16_cS_(<16 x i8>, <16 x i8>) #9 {
  %3 = alloca <16 x i8>, align 16
  %4 = alloca <16 x i8>, align 16
  %5 = alloca <16 x i8>, align 16
  %6 = alloca <16 x i8>, align 16
  store <16 x i8> %0, <16 x i8>* %3, align 16, !tbaa !7
  store <16 x i8> %1, <16 x i8>* %4, align 16, !tbaa !7
  %7 = load <16 x i8>, <16 x i8>* %3, align 16, !tbaa !7
  %8 = load <16 x i8>, <16 x i8>* %4, align 16, !tbaa !7
  %9 = call <16 x i8> @_ZN7details13__impl_divremILi16EEEu2CMvbT__cS1_S1_u2CMvrT__c(<16 x i8> %7, <16 x i8> %8, <16 x i8>* %5)
  store <16 x i8> %9, <16 x i8>* %6, align 16, !tbaa !7
  %10 = load <16 x i8>, <16 x i8>* %6, align 16, !tbaa !7
  ret <16 x i8> %10
}

; Function Attrs: alwaysinline inlinehint nounwind
define internal <16 x i8> @_ZN7details13__impl_divremILi16EEEu2CMvbT__cS1_S1_u2CMvrT__c(<16 x i8>, <16 x i8>, <16 x i8>*) #10 comdat {
  %4 = alloca <16 x i8>, align 16
  %5 = alloca <16 x i8>, align 16
  %6 = alloca <16 x i8>*, align 16
  %7 = alloca <16 x i16>, align 32
  %8 = alloca <16 x i16>, align 32
  %9 = alloca <16 x i16>, align 32
  %10 = alloca <16 x i16>, align 32
  store <16 x i8> %0, <16 x i8>* %4, align 16, !tbaa !7
  store <16 x i8> %1, <16 x i8>* %5, align 16, !tbaa !7
  store <16 x i8>* %2, <16 x i8>** %6, align 16, !tbaa !7
  %11 = load <16 x i8>, <16 x i8>* %4, align 16, !tbaa !7
  %12 = sext <16 x i8> %11 to <16 x i16>
  store <16 x i16> %12, <16 x i16>* %7, align 32, !tbaa !7
  %13 = load <16 x i8>, <16 x i8>* %5, align 16, !tbaa !7
  %14 = sext <16 x i8> %13 to <16 x i16>
  store <16 x i16> %14, <16 x i16>* %8, align 32, !tbaa !7
  %15 = load <16 x i16>, <16 x i16>* %7, align 32, !tbaa !7
  %16 = load <16 x i16>, <16 x i16>* %8, align 32, !tbaa !7
  %17 = call <16 x i16> @_ZN7details13__impl_divremILi16EEEu2CMvbT__sS1_S1_u2CMvrT__s(<16 x i16> %15, <16 x i16> %16, <16 x i16>* %9)
  store <16 x i16> %17, <16 x i16>* %10, align 32, !tbaa !7
  %18 = load <16 x i16>, <16 x i16>* %9, align 32, !tbaa !7
  %19 = trunc <16 x i16> %18 to <16 x i8>
  call void @llvm.genx.vstore.v16i8.p0v16i8(<16 x i8> %19, <16 x i8>* %2)
  %20 = load <16 x i16>, <16 x i16>* %10, align 32, !tbaa !7
  %21 = trunc <16 x i16> %20 to <16 x i8>
  ret <16 x i8> %21
}

; Function Attrs: noinline nounwind
define internal <32 x i8> @_Z24__cm_intrinsic_impl_sdivu2CMvb32_cS_(<32 x i8>, <32 x i8>) #11 {
  %3 = alloca <32 x i8>, align 32
  %4 = alloca <32 x i8>, align 32
  %5 = alloca <32 x i8>, align 32
  %6 = alloca <32 x i8>, align 32
  store <32 x i8> %0, <32 x i8>* %3, align 32, !tbaa !7
  store <32 x i8> %1, <32 x i8>* %4, align 32, !tbaa !7
  %7 = load <32 x i8>, <32 x i8>* %3, align 32, !tbaa !7
  %8 = load <32 x i8>, <32 x i8>* %4, align 32, !tbaa !7
  %9 = call <32 x i8> @_ZN7details13__impl_divremILi32EEEu2CMvbT__cS1_S1_u2CMvrT__c(<32 x i8> %7, <32 x i8> %8, <32 x i8>* %5)
  store <32 x i8> %9, <32 x i8>* %6, align 32, !tbaa !7
  %10 = load <32 x i8>, <32 x i8>* %6, align 32, !tbaa !7
  ret <32 x i8> %10
}

; Function Attrs: alwaysinline inlinehint nounwind
define internal <32 x i8> @_ZN7details13__impl_divremILi32EEEu2CMvbT__cS1_S1_u2CMvrT__c(<32 x i8>, <32 x i8>, <32 x i8>*) #12 comdat {
  %4 = alloca <32 x i8>, align 32
  %5 = alloca <32 x i8>, align 32
  %6 = alloca <32 x i8>*, align 32
  %7 = alloca <32 x i16>, align 64
  %8 = alloca <32 x i16>, align 64
  %9 = alloca <32 x i16>, align 64
  %10 = alloca <32 x i16>, align 64
  store <32 x i8> %0, <32 x i8>* %4, align 32, !tbaa !7
  store <32 x i8> %1, <32 x i8>* %5, align 32, !tbaa !7
  store <32 x i8>* %2, <32 x i8>** %6, align 32, !tbaa !7
  %11 = load <32 x i8>, <32 x i8>* %4, align 32, !tbaa !7
  %12 = sext <32 x i8> %11 to <32 x i16>
  store <32 x i16> %12, <32 x i16>* %7, align 64, !tbaa !7
  %13 = load <32 x i8>, <32 x i8>* %5, align 32, !tbaa !7
  %14 = sext <32 x i8> %13 to <32 x i16>
  store <32 x i16> %14, <32 x i16>* %8, align 64, !tbaa !7
  %15 = load <32 x i16>, <32 x i16>* %7, align 64, !tbaa !7
  %16 = load <32 x i16>, <32 x i16>* %8, align 64, !tbaa !7
  %17 = call <32 x i16> @_ZN7details13__impl_divremILi32EEEu2CMvbT__sS1_S1_u2CMvrT__s(<32 x i16> %15, <32 x i16> %16, <32 x i16>* %9)
  store <32 x i16> %17, <32 x i16>* %10, align 64, !tbaa !7
  %18 = load <32 x i16>, <32 x i16>* %9, align 64, !tbaa !7
  %19 = trunc <32 x i16> %18 to <32 x i8>
  call void @llvm.genx.vstore.v32i8.p0v32i8(<32 x i8> %19, <32 x i8>* %2)
  %20 = load <32 x i16>, <32 x i16>* %10, align 64, !tbaa !7
  %21 = trunc <32 x i16> %20 to <32 x i8>
  ret <32 x i8> %21
}

; Function Attrs: noinline nounwind
define internal signext i8 @_Z24__cm_intrinsic_impl_sremcc(i8 signext, i8 signext) #0 {
  %3 = alloca i8, align 1
  %4 = alloca i8, align 1
  %5 = alloca <1 x i8>, align 1
  %6 = alloca <1 x i8>, align 1
  %7 = alloca <1 x i8>, align 1
  store i8 %0, i8* %3, align 1, !tbaa !7
  store i8 %1, i8* %4, align 1, !tbaa !7
  %8 = load i8, i8* %3, align 1, !tbaa !7
  %9 = insertelement <1 x i8> undef, i8 %8, i32 0
  %10 = shufflevector <1 x i8> %9, <1 x i8> undef, <1 x i32> zeroinitializer
  store <1 x i8> %10, <1 x i8>* %5, align 1, !tbaa !7
  %11 = load i8, i8* %4, align 1, !tbaa !7
  %12 = insertelement <1 x i8> undef, i8 %11, i32 0
  %13 = shufflevector <1 x i8> %12, <1 x i8> undef, <1 x i32> zeroinitializer
  store <1 x i8> %13, <1 x i8>* %6, align 1, !tbaa !7
  %14 = load <1 x i8>, <1 x i8>* %5, align 1, !tbaa !7
  %15 = load <1 x i8>, <1 x i8>* %6, align 1, !tbaa !7
  %16 = call <1 x i8> @_ZN7details13__impl_divremILi1EEEu2CMvbT__cS1_S1_u2CMvrT__c(<1 x i8> %14, <1 x i8> %15, <1 x i8>* %7)
  %17 = load <1 x i8>, <1 x i8>* %7, align 1, !tbaa !7
  %18 = call <1 x i8> @llvm.genx.rdregioni.v1i8.v1i8.i16(<1 x i8> %17, i32 0, i32 1, i32 0, i16 0, i32 undef)
  %19 = extractelement <1 x i8> %18, i32 0
  ret i8 %19
}

; Function Attrs: noinline nounwind
define internal <1 x i8> @_Z24__cm_intrinsic_impl_sremu2CMvb1_cS_(<1 x i8>, <1 x i8>) #0 {
  %3 = alloca <1 x i8>, align 1
  %4 = alloca <1 x i8>, align 1
  %5 = alloca <1 x i8>, align 1
  store <1 x i8> %0, <1 x i8>* %3, align 1, !tbaa !7
  store <1 x i8> %1, <1 x i8>* %4, align 1, !tbaa !7
  %6 = load <1 x i8>, <1 x i8>* %3, align 1, !tbaa !7
  %7 = load <1 x i8>, <1 x i8>* %4, align 1, !tbaa !7
  %8 = call <1 x i8> @_ZN7details13__impl_divremILi1EEEu2CMvbT__cS1_S1_u2CMvrT__c(<1 x i8> %6, <1 x i8> %7, <1 x i8>* %5)
  %9 = load <1 x i8>, <1 x i8>* %5, align 1, !tbaa !7
  ret <1 x i8> %9
}

; Function Attrs: noinline nounwind
define internal <2 x i8> @_Z24__cm_intrinsic_impl_sremu2CMvb2_cS_(<2 x i8>, <2 x i8>) #3 {
  %3 = alloca <2 x i8>, align 2
  %4 = alloca <2 x i8>, align 2
  %5 = alloca <2 x i8>, align 2
  store <2 x i8> %0, <2 x i8>* %3, align 2, !tbaa !7
  store <2 x i8> %1, <2 x i8>* %4, align 2, !tbaa !7
  %6 = load <2 x i8>, <2 x i8>* %3, align 2, !tbaa !7
  %7 = load <2 x i8>, <2 x i8>* %4, align 2, !tbaa !7
  %8 = call <2 x i8> @_ZN7details13__impl_divremILi2EEEu2CMvbT__cS1_S1_u2CMvrT__c(<2 x i8> %6, <2 x i8> %7, <2 x i8>* %5)
  %9 = load <2 x i8>, <2 x i8>* %5, align 2, !tbaa !7
  ret <2 x i8> %9
}

; Function Attrs: noinline nounwind
define internal <4 x i8> @_Z24__cm_intrinsic_impl_sremu2CMvb4_cS_(<4 x i8>, <4 x i8>) #5 {
  %3 = alloca <4 x i8>, align 4
  %4 = alloca <4 x i8>, align 4
  %5 = alloca <4 x i8>, align 4
  store <4 x i8> %0, <4 x i8>* %3, align 4, !tbaa !7
  store <4 x i8> %1, <4 x i8>* %4, align 4, !tbaa !7
  %6 = load <4 x i8>, <4 x i8>* %3, align 4, !tbaa !7
  %7 = load <4 x i8>, <4 x i8>* %4, align 4, !tbaa !7
  %8 = call <4 x i8> @_ZN7details13__impl_divremILi4EEEu2CMvbT__cS1_S1_u2CMvrT__c(<4 x i8> %6, <4 x i8> %7, <4 x i8>* %5)
  %9 = load <4 x i8>, <4 x i8>* %5, align 4, !tbaa !7
  ret <4 x i8> %9
}

; Function Attrs: noinline nounwind
define internal <8 x i8> @_Z24__cm_intrinsic_impl_sremu2CMvb8_cS_(<8 x i8>, <8 x i8>) #7 {
  %3 = alloca <8 x i8>, align 8
  %4 = alloca <8 x i8>, align 8
  %5 = alloca <8 x i8>, align 8
  store <8 x i8> %0, <8 x i8>* %3, align 8, !tbaa !7
  store <8 x i8> %1, <8 x i8>* %4, align 8, !tbaa !7
  %6 = load <8 x i8>, <8 x i8>* %3, align 8, !tbaa !7
  %7 = load <8 x i8>, <8 x i8>* %4, align 8, !tbaa !7
  %8 = call <8 x i8> @_ZN7details13__impl_divremILi8EEEu2CMvbT__cS1_S1_u2CMvrT__c(<8 x i8> %6, <8 x i8> %7, <8 x i8>* %5)
  %9 = load <8 x i8>, <8 x i8>* %5, align 8, !tbaa !7
  ret <8 x i8> %9
}

; Function Attrs: noinline nounwind
define internal <16 x i8> @_Z24__cm_intrinsic_impl_sremu2CMvb16_cS_(<16 x i8>, <16 x i8>) #9 {
  %3 = alloca <16 x i8>, align 16
  %4 = alloca <16 x i8>, align 16
  %5 = alloca <16 x i8>, align 16
  store <16 x i8> %0, <16 x i8>* %3, align 16, !tbaa !7
  store <16 x i8> %1, <16 x i8>* %4, align 16, !tbaa !7
  %6 = load <16 x i8>, <16 x i8>* %3, align 16, !tbaa !7
  %7 = load <16 x i8>, <16 x i8>* %4, align 16, !tbaa !7
  %8 = call <16 x i8> @_ZN7details13__impl_divremILi16EEEu2CMvbT__cS1_S1_u2CMvrT__c(<16 x i8> %6, <16 x i8> %7, <16 x i8>* %5)
  %9 = load <16 x i8>, <16 x i8>* %5, align 16, !tbaa !7
  ret <16 x i8> %9
}

; Function Attrs: noinline nounwind
define internal <32 x i8> @_Z24__cm_intrinsic_impl_sremu2CMvb32_cS_(<32 x i8>, <32 x i8>) #11 {
  %3 = alloca <32 x i8>, align 32
  %4 = alloca <32 x i8>, align 32
  %5 = alloca <32 x i8>, align 32
  store <32 x i8> %0, <32 x i8>* %3, align 32, !tbaa !7
  store <32 x i8> %1, <32 x i8>* %4, align 32, !tbaa !7
  %6 = load <32 x i8>, <32 x i8>* %3, align 32, !tbaa !7
  %7 = load <32 x i8>, <32 x i8>* %4, align 32, !tbaa !7
  %8 = call <32 x i8> @_ZN7details13__impl_divremILi32EEEu2CMvbT__cS1_S1_u2CMvrT__c(<32 x i8> %6, <32 x i8> %7, <32 x i8>* %5)
  %9 = load <32 x i8>, <32 x i8>* %5, align 32, !tbaa !7
  ret <32 x i8> %9
}

; Function Attrs: noinline nounwind
define internal signext i16 @_Z24__cm_intrinsic_impl_sdivss(i16 signext, i16 signext) #3 {
  %3 = alloca i16, align 2
  %4 = alloca i16, align 2
  %5 = alloca <1 x i16>, align 2
  %6 = alloca <1 x i16>, align 2
  %7 = alloca <1 x i16>, align 2
  %8 = alloca <1 x i16>, align 2
  store i16 %0, i16* %3, align 2, !tbaa !11
  store i16 %1, i16* %4, align 2, !tbaa !11
  %9 = load i16, i16* %3, align 2, !tbaa !11
  %10 = insertelement <1 x i16> undef, i16 %9, i32 0
  %11 = shufflevector <1 x i16> %10, <1 x i16> undef, <1 x i32> zeroinitializer
  store <1 x i16> %11, <1 x i16>* %5, align 2, !tbaa !7
  %12 = load i16, i16* %4, align 2, !tbaa !11
  %13 = insertelement <1 x i16> undef, i16 %12, i32 0
  %14 = shufflevector <1 x i16> %13, <1 x i16> undef, <1 x i32> zeroinitializer
  store <1 x i16> %14, <1 x i16>* %6, align 2, !tbaa !7
  %15 = load <1 x i16>, <1 x i16>* %5, align 2, !tbaa !7
  %16 = load <1 x i16>, <1 x i16>* %6, align 2, !tbaa !7
  %17 = call <1 x i16> @_ZN7details13__impl_divremILi1EEEu2CMvbT__sS1_S1_u2CMvrT__s(<1 x i16> %15, <1 x i16> %16, <1 x i16>* %7)
  store <1 x i16> %17, <1 x i16>* %8, align 2, !tbaa !7
  %18 = load <1 x i16>, <1 x i16>* %8, align 2, !tbaa !7
  %19 = call <1 x i16> @llvm.genx.rdregioni.v1i16.v1i16.i16(<1 x i16> %18, i32 0, i32 1, i32 0, i16 0, i32 undef)
  %20 = extractelement <1 x i16> %19, i32 0
  ret i16 %20
}

; Function Attrs: alwaysinline inlinehint nounwind
define internal <1 x i16> @_ZN7details13__impl_divremILi1EEEu2CMvbT__sS1_S1_u2CMvrT__s(<1 x i16>, <1 x i16>, <1 x i16>*) #1 comdat {
  %4 = alloca <1 x i16>, align 2
  %5 = alloca <1 x i16>, align 2
  %6 = alloca <1 x i16>*, align 2
  %7 = alloca <1 x float>, align 4
  %8 = alloca <1 x float>, align 4
  %9 = alloca <1 x float>, align 4
  %10 = alloca <1 x float>, align 4
  %11 = alloca <1 x float>, align 4
  %12 = alloca <1 x i16>, align 2
  store <1 x i16> %0, <1 x i16>* %4, align 2, !tbaa !7
  store <1 x i16> %1, <1 x i16>* %5, align 2, !tbaa !7
  store <1 x i16>* %2, <1 x i16>** %6, align 2, !tbaa !7
  %13 = load <1 x i16>, <1 x i16>* %4, align 2, !tbaa !7
  %14 = sitofp <1 x i16> %13 to <1 x float>
  store <1 x float> %14, <1 x float>* %7, align 4, !tbaa !7
  %15 = load <1 x i16>, <1 x i16>* %5, align 2, !tbaa !7
  %16 = sitofp <1 x i16> %15 to <1 x float>
  store <1 x float> %16, <1 x float>* %8, align 4, !tbaa !7
  %17 = load <1 x float>, <1 x float>* %8, align 4, !tbaa !7
  %18 = fdiv <1 x float> <float 1.000000e+00>, %17
  store <1 x float> %18, <1 x float>* %9, align 4, !tbaa !7
  %19 = call float @_ZN7details16__impl_hex2floatEj(i32 1065353224)
  %20 = insertelement <1 x float> undef, float %19, i32 0
  %21 = shufflevector <1 x float> %20, <1 x float> undef, <1 x i32> zeroinitializer
  store <1 x float> %21, <1 x float>* %10, align 4, !tbaa !7
  %22 = load <1 x float>, <1 x float>* %7, align 4, !tbaa !7
  %23 = load <1 x float>, <1 x float>* %10, align 4, !tbaa !7
  %24 = fmul <1 x float> %22, %23
  store <1 x float> %24, <1 x float>* %7, align 4, !tbaa !7
  %25 = load <1 x float>, <1 x float>* %7, align 4, !tbaa !7
  %26 = load <1 x float>, <1 x float>* %9, align 4, !tbaa !7
  %27 = fmul <1 x float> %25, %26
  store <1 x float> %27, <1 x float>* %11, align 4, !tbaa !7
  %28 = load <1 x float>, <1 x float>* %11, align 4, !tbaa !7
  %29 = fptosi <1 x float> %28 to <1 x i32>
  %30 = trunc <1 x i32> %29 to <1 x i16>
  store <1 x i16> %30, <1 x i16>* %12, align 2, !tbaa !7
  %31 = load <1 x i16>, <1 x i16>* %4, align 2, !tbaa !7
  %32 = sext <1 x i16> %31 to <1 x i32>
  %33 = load <1 x i16>, <1 x i16>* %12, align 2, !tbaa !7
  %34 = sext <1 x i16> %33 to <1 x i32>
  %35 = load <1 x i16>, <1 x i16>* %5, align 2, !tbaa !7
  %36 = sext <1 x i16> %35 to <1 x i32>
  %37 = mul <1 x i32> %34, %36
  %38 = sub <1 x i32> %32, %37
  %39 = trunc <1 x i32> %38 to <1 x i16>
  store <1 x i16> %39, <1 x i16>* %2
  %40 = load <1 x i16>, <1 x i16>* %12, align 2, !tbaa !7
  ret <1 x i16> %40
}

; Function Attrs: nounwind readnone
declare <1 x i16> @llvm.genx.rdregioni.v1i16.v1i16.i16(<1 x i16>, i32, i32, i32, i16, i32) #2

; Function Attrs: noinline nounwind
define internal <1 x i16> @_Z24__cm_intrinsic_impl_sdivu2CMvb1_sS_(<1 x i16>, <1 x i16>) #3 {
  %3 = alloca <1 x i16>, align 2
  %4 = alloca <1 x i16>, align 2
  %5 = alloca <1 x i16>, align 2
  %6 = alloca <1 x i16>, align 2
  store <1 x i16> %0, <1 x i16>* %3, align 2, !tbaa !7
  store <1 x i16> %1, <1 x i16>* %4, align 2, !tbaa !7
  %7 = load <1 x i16>, <1 x i16>* %3, align 2, !tbaa !7
  %8 = load <1 x i16>, <1 x i16>* %4, align 2, !tbaa !7
  %9 = call <1 x i16> @_ZN7details13__impl_divremILi1EEEu2CMvbT__sS1_S1_u2CMvrT__s(<1 x i16> %7, <1 x i16> %8, <1 x i16>* %5)
  store <1 x i16> %9, <1 x i16>* %6, align 2, !tbaa !7
  %10 = load <1 x i16>, <1 x i16>* %6, align 2, !tbaa !7
  ret <1 x i16> %10
}

; Function Attrs: noinline nounwind
define internal <2 x i16> @_Z24__cm_intrinsic_impl_sdivu2CMvb2_sS_(<2 x i16>, <2 x i16>) #5 {
  %3 = alloca <2 x i16>, align 4
  %4 = alloca <2 x i16>, align 4
  %5 = alloca <2 x i16>, align 4
  %6 = alloca <2 x i16>, align 4
  store <2 x i16> %0, <2 x i16>* %3, align 4, !tbaa !7
  store <2 x i16> %1, <2 x i16>* %4, align 4, !tbaa !7
  %7 = load <2 x i16>, <2 x i16>* %3, align 4, !tbaa !7
  %8 = load <2 x i16>, <2 x i16>* %4, align 4, !tbaa !7
  %9 = call <2 x i16> @_ZN7details13__impl_divremILi2EEEu2CMvbT__sS1_S1_u2CMvrT__s(<2 x i16> %7, <2 x i16> %8, <2 x i16>* %5)
  store <2 x i16> %9, <2 x i16>* %6, align 4, !tbaa !7
  %10 = load <2 x i16>, <2 x i16>* %6, align 4, !tbaa !7
  ret <2 x i16> %10
}

; Function Attrs: alwaysinline inlinehint nounwind
define internal <2 x i16> @_ZN7details13__impl_divremILi2EEEu2CMvbT__sS1_S1_u2CMvrT__s(<2 x i16>, <2 x i16>, <2 x i16>*) #4 comdat {
  %4 = alloca <2 x i16>, align 4
  %5 = alloca <2 x i16>, align 4
  %6 = alloca <2 x i16>*, align 4
  %7 = alloca <2 x float>, align 8
  %8 = alloca <2 x float>, align 8
  %9 = alloca <2 x float>, align 8
  %10 = alloca <2 x float>, align 8
  %11 = alloca <2 x float>, align 8
  %12 = alloca <2 x i16>, align 4
  store <2 x i16> %0, <2 x i16>* %4, align 4, !tbaa !7
  store <2 x i16> %1, <2 x i16>* %5, align 4, !tbaa !7
  store <2 x i16>* %2, <2 x i16>** %6, align 4, !tbaa !7
  %13 = load <2 x i16>, <2 x i16>* %4, align 4, !tbaa !7
  %14 = sitofp <2 x i16> %13 to <2 x float>
  store <2 x float> %14, <2 x float>* %7, align 8, !tbaa !7
  %15 = load <2 x i16>, <2 x i16>* %5, align 4, !tbaa !7
  %16 = sitofp <2 x i16> %15 to <2 x float>
  store <2 x float> %16, <2 x float>* %8, align 8, !tbaa !7
  %17 = load <2 x float>, <2 x float>* %8, align 8, !tbaa !7
  %18 = fdiv <2 x float> <float 1.000000e+00, float 1.000000e+00>, %17
  store <2 x float> %18, <2 x float>* %9, align 8, !tbaa !7
  %19 = call float @_ZN7details16__impl_hex2floatEj(i32 1065353224)
  %20 = insertelement <2 x float> undef, float %19, i32 0
  %21 = shufflevector <2 x float> %20, <2 x float> undef, <2 x i32> zeroinitializer
  store <2 x float> %21, <2 x float>* %10, align 8, !tbaa !7
  %22 = load <2 x float>, <2 x float>* %7, align 8, !tbaa !7
  %23 = load <2 x float>, <2 x float>* %10, align 8, !tbaa !7
  %24 = fmul <2 x float> %22, %23
  store <2 x float> %24, <2 x float>* %7, align 8, !tbaa !7
  %25 = load <2 x float>, <2 x float>* %7, align 8, !tbaa !7
  %26 = load <2 x float>, <2 x float>* %9, align 8, !tbaa !7
  %27 = fmul <2 x float> %25, %26
  store <2 x float> %27, <2 x float>* %11, align 8, !tbaa !7
  %28 = load <2 x float>, <2 x float>* %11, align 8, !tbaa !7
  %29 = fptosi <2 x float> %28 to <2 x i32>
  %30 = trunc <2 x i32> %29 to <2 x i16>
  store <2 x i16> %30, <2 x i16>* %12, align 4, !tbaa !7
  %31 = load <2 x i16>, <2 x i16>* %4, align 4, !tbaa !7
  %32 = sext <2 x i16> %31 to <2 x i32>
  %33 = load <2 x i16>, <2 x i16>* %12, align 4, !tbaa !7
  %34 = sext <2 x i16> %33 to <2 x i32>
  %35 = load <2 x i16>, <2 x i16>* %5, align 4, !tbaa !7
  %36 = sext <2 x i16> %35 to <2 x i32>
  %37 = mul <2 x i32> %34, %36
  %38 = sub <2 x i32> %32, %37
  %39 = trunc <2 x i32> %38 to <2 x i16>
  call void @llvm.genx.vstore.v2i16.p0v2i16(<2 x i16> %39, <2 x i16>* %2)
  %40 = load <2 x i16>, <2 x i16>* %12, align 4, !tbaa !7
  ret <2 x i16> %40
}

; Function Attrs: noinline nounwind
define internal <4 x i16> @_Z24__cm_intrinsic_impl_sdivu2CMvb4_sS_(<4 x i16>, <4 x i16>) #7 {
  %3 = alloca <4 x i16>, align 8
  %4 = alloca <4 x i16>, align 8
  %5 = alloca <4 x i16>, align 8
  %6 = alloca <4 x i16>, align 8
  store <4 x i16> %0, <4 x i16>* %3, align 8, !tbaa !7
  store <4 x i16> %1, <4 x i16>* %4, align 8, !tbaa !7
  %7 = load <4 x i16>, <4 x i16>* %3, align 8, !tbaa !7
  %8 = load <4 x i16>, <4 x i16>* %4, align 8, !tbaa !7
  %9 = call <4 x i16> @_ZN7details13__impl_divremILi4EEEu2CMvbT__sS1_S1_u2CMvrT__s(<4 x i16> %7, <4 x i16> %8, <4 x i16>* %5)
  store <4 x i16> %9, <4 x i16>* %6, align 8, !tbaa !7
  %10 = load <4 x i16>, <4 x i16>* %6, align 8, !tbaa !7
  ret <4 x i16> %10
}

; Function Attrs: alwaysinline inlinehint nounwind
define internal <4 x i16> @_ZN7details13__impl_divremILi4EEEu2CMvbT__sS1_S1_u2CMvrT__s(<4 x i16>, <4 x i16>, <4 x i16>*) #6 comdat {
  %4 = alloca <4 x i16>, align 8
  %5 = alloca <4 x i16>, align 8
  %6 = alloca <4 x i16>*, align 8
  %7 = alloca <4 x float>, align 16
  %8 = alloca <4 x float>, align 16
  %9 = alloca <4 x float>, align 16
  %10 = alloca <4 x float>, align 16
  %11 = alloca <4 x float>, align 16
  %12 = alloca <4 x i16>, align 8
  store <4 x i16> %0, <4 x i16>* %4, align 8, !tbaa !7
  store <4 x i16> %1, <4 x i16>* %5, align 8, !tbaa !7
  store <4 x i16>* %2, <4 x i16>** %6, align 8, !tbaa !7
  %13 = load <4 x i16>, <4 x i16>* %4, align 8, !tbaa !7
  %14 = sitofp <4 x i16> %13 to <4 x float>
  store <4 x float> %14, <4 x float>* %7, align 16, !tbaa !7
  %15 = load <4 x i16>, <4 x i16>* %5, align 8, !tbaa !7
  %16 = sitofp <4 x i16> %15 to <4 x float>
  store <4 x float> %16, <4 x float>* %8, align 16, !tbaa !7
  %17 = load <4 x float>, <4 x float>* %8, align 16, !tbaa !7
  %18 = fdiv <4 x float> <float 1.000000e+00, float 1.000000e+00, float 1.000000e+00, float 1.000000e+00>, %17
  store <4 x float> %18, <4 x float>* %9, align 16, !tbaa !7
  %19 = call float @_ZN7details16__impl_hex2floatEj(i32 1065353224)
  %20 = insertelement <4 x float> undef, float %19, i32 0
  %21 = shufflevector <4 x float> %20, <4 x float> undef, <4 x i32> zeroinitializer
  store <4 x float> %21, <4 x float>* %10, align 16, !tbaa !7
  %22 = load <4 x float>, <4 x float>* %7, align 16, !tbaa !7
  %23 = load <4 x float>, <4 x float>* %10, align 16, !tbaa !7
  %24 = fmul <4 x float> %22, %23
  store <4 x float> %24, <4 x float>* %7, align 16, !tbaa !7
  %25 = load <4 x float>, <4 x float>* %7, align 16, !tbaa !7
  %26 = load <4 x float>, <4 x float>* %9, align 16, !tbaa !7
  %27 = fmul <4 x float> %25, %26
  store <4 x float> %27, <4 x float>* %11, align 16, !tbaa !7
  %28 = load <4 x float>, <4 x float>* %11, align 16, !tbaa !7
  %29 = fptosi <4 x float> %28 to <4 x i32>
  %30 = trunc <4 x i32> %29 to <4 x i16>
  store <4 x i16> %30, <4 x i16>* %12, align 8, !tbaa !7
  %31 = load <4 x i16>, <4 x i16>* %4, align 8, !tbaa !7
  %32 = sext <4 x i16> %31 to <4 x i32>
  %33 = load <4 x i16>, <4 x i16>* %12, align 8, !tbaa !7
  %34 = sext <4 x i16> %33 to <4 x i32>
  %35 = load <4 x i16>, <4 x i16>* %5, align 8, !tbaa !7
  %36 = sext <4 x i16> %35 to <4 x i32>
  %37 = mul <4 x i32> %34, %36
  %38 = sub <4 x i32> %32, %37
  %39 = trunc <4 x i32> %38 to <4 x i16>
  call void @llvm.genx.vstore.v4i16.p0v4i16(<4 x i16> %39, <4 x i16>* %2)
  %40 = load <4 x i16>, <4 x i16>* %12, align 8, !tbaa !7
  ret <4 x i16> %40
}

; Function Attrs: noinline nounwind
define dso_local <8 x i16> @_Z24__cm_intrinsic_impl_sdivu2CMvb8_sS_(<8 x i16>, <8 x i16>) #9 {
  %3 = alloca <8 x i16>, align 16
  %4 = alloca <8 x i16>, align 16
  %5 = alloca <8 x i16>, align 16
  %6 = alloca <8 x i16>, align 16
  store <8 x i16> %0, <8 x i16>* %3, align 16, !tbaa !7
  store <8 x i16> %1, <8 x i16>* %4, align 16, !tbaa !7
  %7 = load <8 x i16>, <8 x i16>* %3, align 16, !tbaa !7
  %8 = load <8 x i16>, <8 x i16>* %4, align 16, !tbaa !7
  %9 = call <8 x i16> @_ZN7details13__impl_divremILi8EEEu2CMvbT__sS1_S1_u2CMvrT__s(<8 x i16> %7, <8 x i16> %8, <8 x i16>* %5)
  store <8 x i16> %9, <8 x i16>* %6, align 16, !tbaa !7
  %10 = load <8 x i16>, <8 x i16>* %6, align 16, !tbaa !7
  ret <8 x i16> %10
}

; Function Attrs: alwaysinline inlinehint nounwind
define internal <8 x i16> @_ZN7details13__impl_divremILi8EEEu2CMvbT__sS1_S1_u2CMvrT__s(<8 x i16>, <8 x i16>, <8 x i16>*) #8 comdat {
  %4 = alloca <8 x i16>, align 16
  %5 = alloca <8 x i16>, align 16
  %6 = alloca <8 x i16>*, align 16
  %7 = alloca <8 x float>, align 32
  %8 = alloca <8 x float>, align 32
  %9 = alloca <8 x float>, align 32
  %10 = alloca <8 x float>, align 32
  %11 = alloca <8 x float>, align 32
  %12 = alloca <8 x i16>, align 16
  store <8 x i16> %0, <8 x i16>* %4, align 16, !tbaa !7
  store <8 x i16> %1, <8 x i16>* %5, align 16, !tbaa !7
  store <8 x i16>* %2, <8 x i16>** %6, align 16, !tbaa !7
  %13 = load <8 x i16>, <8 x i16>* %4, align 16, !tbaa !7
  %14 = sitofp <8 x i16> %13 to <8 x float>
  store <8 x float> %14, <8 x float>* %7, align 32, !tbaa !7
  %15 = load <8 x i16>, <8 x i16>* %5, align 16, !tbaa !7
  %16 = sitofp <8 x i16> %15 to <8 x float>
  store <8 x float> %16, <8 x float>* %8, align 32, !tbaa !7
  %17 = load <8 x float>, <8 x float>* %8, align 32, !tbaa !7
  %18 = fdiv <8 x float> <float 1.000000e+00, float 1.000000e+00, float 1.000000e+00, float 1.000000e+00, float 1.000000e+00, float 1.000000e+00, float 1.000000e+00, float 1.000000e+00>, %17
  store <8 x float> %18, <8 x float>* %9, align 32, !tbaa !7
  %19 = call float @_ZN7details16__impl_hex2floatEj(i32 1065353224)
  %20 = insertelement <8 x float> undef, float %19, i32 0
  %21 = shufflevector <8 x float> %20, <8 x float> undef, <8 x i32> zeroinitializer
  store <8 x float> %21, <8 x float>* %10, align 32, !tbaa !7
  %22 = load <8 x float>, <8 x float>* %7, align 32, !tbaa !7
  %23 = load <8 x float>, <8 x float>* %10, align 32, !tbaa !7
  %24 = fmul <8 x float> %22, %23
  store <8 x float> %24, <8 x float>* %7, align 32, !tbaa !7
  %25 = load <8 x float>, <8 x float>* %7, align 32, !tbaa !7
  %26 = load <8 x float>, <8 x float>* %9, align 32, !tbaa !7
  %27 = fmul <8 x float> %25, %26
  store <8 x float> %27, <8 x float>* %11, align 32, !tbaa !7
  %28 = load <8 x float>, <8 x float>* %11, align 32, !tbaa !7
  %29 = fptosi <8 x float> %28 to <8 x i32>
  %30 = trunc <8 x i32> %29 to <8 x i16>
  store <8 x i16> %30, <8 x i16>* %12, align 16, !tbaa !7
  %31 = load <8 x i16>, <8 x i16>* %4, align 16, !tbaa !7
  %32 = sext <8 x i16> %31 to <8 x i32>
  %33 = load <8 x i16>, <8 x i16>* %12, align 16, !tbaa !7
  %34 = sext <8 x i16> %33 to <8 x i32>
  %35 = load <8 x i16>, <8 x i16>* %5, align 16, !tbaa !7
  %36 = sext <8 x i16> %35 to <8 x i32>
  %37 = mul <8 x i32> %34, %36
  %38 = sub <8 x i32> %32, %37
  %39 = trunc <8 x i32> %38 to <8 x i16>
  call void @llvm.genx.vstore.v8i16.p0v8i16(<8 x i16> %39, <8 x i16>* %2)
  %40 = load <8 x i16>, <8 x i16>* %12, align 16, !tbaa !7
  ret <8 x i16> %40
}

; Function Attrs: noinline nounwind
define dso_local <16 x i16> @_Z24__cm_intrinsic_impl_sdivu2CMvb16_sS_(<16 x i16>, <16 x i16>) #11 {
  %3 = alloca <16 x i16>, align 32
  %4 = alloca <16 x i16>, align 32
  %5 = alloca <16 x i16>, align 32
  %6 = alloca <16 x i16>, align 32
  store <16 x i16> %0, <16 x i16>* %3, align 32, !tbaa !7
  store <16 x i16> %1, <16 x i16>* %4, align 32, !tbaa !7
  %7 = load <16 x i16>, <16 x i16>* %3, align 32, !tbaa !7
  %8 = load <16 x i16>, <16 x i16>* %4, align 32, !tbaa !7
  %9 = call <16 x i16> @_ZN7details13__impl_divremILi16EEEu2CMvbT__sS1_S1_u2CMvrT__s(<16 x i16> %7, <16 x i16> %8, <16 x i16>* %5)
  store <16 x i16> %9, <16 x i16>* %6, align 32, !tbaa !7
  %10 = load <16 x i16>, <16 x i16>* %6, align 32, !tbaa !7
  ret <16 x i16> %10
}

; Function Attrs: alwaysinline inlinehint nounwind
define internal <16 x i16> @_ZN7details13__impl_divremILi16EEEu2CMvbT__sS1_S1_u2CMvrT__s(<16 x i16>, <16 x i16>, <16 x i16>*) #10 comdat {
  %4 = alloca <16 x i16>, align 32
  %5 = alloca <16 x i16>, align 32
  %6 = alloca <16 x i16>*, align 32
  %7 = alloca <16 x float>, align 64
  %8 = alloca <16 x float>, align 64
  %9 = alloca <16 x float>, align 64
  %10 = alloca <16 x float>, align 64
  %11 = alloca <16 x float>, align 64
  %12 = alloca <16 x i16>, align 32
  store <16 x i16> %0, <16 x i16>* %4, align 32, !tbaa !7
  store <16 x i16> %1, <16 x i16>* %5, align 32, !tbaa !7
  store <16 x i16>* %2, <16 x i16>** %6, align 32, !tbaa !7
  %13 = load <16 x i16>, <16 x i16>* %4, align 32, !tbaa !7
  %14 = sitofp <16 x i16> %13 to <16 x float>
  store <16 x float> %14, <16 x float>* %7, align 64, !tbaa !7
  %15 = load <16 x i16>, <16 x i16>* %5, align 32, !tbaa !7
  %16 = sitofp <16 x i16> %15 to <16 x float>
  store <16 x float> %16, <16 x float>* %8, align 64, !tbaa !7
  %17 = load <16 x float>, <16 x float>* %8, align 64, !tbaa !7
  %18 = fdiv <16 x float> <float 1.000000e+00, float 1.000000e+00, float 1.000000e+00, float 1.000000e+00, float 1.000000e+00, float 1.000000e+00, float 1.000000e+00, float 1.000000e+00, float 1.000000e+00, float 1.000000e+00, float 1.000000e+00, float 1.000000e+00, float 1.000000e+00, float 1.000000e+00, float 1.000000e+00, float 1.000000e+00>, %17
  store <16 x float> %18, <16 x float>* %9, align 64, !tbaa !7
  %19 = call float @_ZN7details16__impl_hex2floatEj(i32 1065353224)
  %20 = insertelement <16 x float> undef, float %19, i32 0
  %21 = shufflevector <16 x float> %20, <16 x float> undef, <16 x i32> zeroinitializer
  store <16 x float> %21, <16 x float>* %10, align 64, !tbaa !7
  %22 = load <16 x float>, <16 x float>* %7, align 64, !tbaa !7
  %23 = load <16 x float>, <16 x float>* %10, align 64, !tbaa !7
  %24 = fmul <16 x float> %22, %23
  store <16 x float> %24, <16 x float>* %7, align 64, !tbaa !7
  %25 = load <16 x float>, <16 x float>* %7, align 64, !tbaa !7
  %26 = load <16 x float>, <16 x float>* %9, align 64, !tbaa !7
  %27 = fmul <16 x float> %25, %26
  store <16 x float> %27, <16 x float>* %11, align 64, !tbaa !7
  %28 = load <16 x float>, <16 x float>* %11, align 64, !tbaa !7
  %29 = fptosi <16 x float> %28 to <16 x i32>
  %30 = trunc <16 x i32> %29 to <16 x i16>
  store <16 x i16> %30, <16 x i16>* %12, align 32, !tbaa !7
  %31 = load <16 x i16>, <16 x i16>* %4, align 32, !tbaa !7
  %32 = sext <16 x i16> %31 to <16 x i32>
  %33 = load <16 x i16>, <16 x i16>* %12, align 32, !tbaa !7
  %34 = sext <16 x i16> %33 to <16 x i32>
  %35 = load <16 x i16>, <16 x i16>* %5, align 32, !tbaa !7
  %36 = sext <16 x i16> %35 to <16 x i32>
  %37 = mul <16 x i32> %34, %36
  %38 = sub <16 x i32> %32, %37
  %39 = trunc <16 x i32> %38 to <16 x i16>
  call void @llvm.genx.vstore.v16i16.p0v16i16(<16 x i16> %39, <16 x i16>* %2)
  %40 = load <16 x i16>, <16 x i16>* %12, align 32, !tbaa !7
  ret <16 x i16> %40
}

; Function Attrs: noinline nounwind
define internal <32 x i16> @_Z24__cm_intrinsic_impl_sdivu2CMvb32_sS_(<32 x i16>, <32 x i16>) #13 {
  %3 = alloca <32 x i16>, align 64
  %4 = alloca <32 x i16>, align 64
  %5 = alloca <32 x i16>, align 64
  %6 = alloca <32 x i16>, align 64
  store <32 x i16> %0, <32 x i16>* %3, align 64, !tbaa !7
  store <32 x i16> %1, <32 x i16>* %4, align 64, !tbaa !7
  %7 = load <32 x i16>, <32 x i16>* %3, align 64, !tbaa !7
  %8 = load <32 x i16>, <32 x i16>* %4, align 64, !tbaa !7
  %9 = call <32 x i16> @_ZN7details13__impl_divremILi32EEEu2CMvbT__sS1_S1_u2CMvrT__s(<32 x i16> %7, <32 x i16> %8, <32 x i16>* %5)
  store <32 x i16> %9, <32 x i16>* %6, align 64, !tbaa !7
  %10 = load <32 x i16>, <32 x i16>* %6, align 64, !tbaa !7
  ret <32 x i16> %10
}

; Function Attrs: alwaysinline inlinehint nounwind
define internal <32 x i16> @_ZN7details13__impl_divremILi32EEEu2CMvbT__sS1_S1_u2CMvrT__s(<32 x i16>, <32 x i16>, <32 x i16>*) #12 comdat {
  %4 = alloca <32 x i16>, align 64
  %5 = alloca <32 x i16>, align 64
  %6 = alloca <32 x i16>*, align 64
  %7 = alloca <32 x float>, align 128
  %8 = alloca <32 x float>, align 128
  %9 = alloca <32 x float>, align 128
  %10 = alloca <32 x float>, align 128
  %11 = alloca <32 x float>, align 128
  %12 = alloca <32 x i16>, align 64
  store <32 x i16> %0, <32 x i16>* %4, align 64, !tbaa !7
  store <32 x i16> %1, <32 x i16>* %5, align 64, !tbaa !7
  store <32 x i16>* %2, <32 x i16>** %6, align 64, !tbaa !7
  %13 = load <32 x i16>, <32 x i16>* %4, align 64, !tbaa !7
  %14 = sitofp <32 x i16> %13 to <32 x float>
  store <32 x float> %14, <32 x float>* %7, align 128, !tbaa !7
  %15 = load <32 x i16>, <32 x i16>* %5, align 64, !tbaa !7
  %16 = sitofp <32 x i16> %15 to <32 x float>
  store <32 x float> %16, <32 x float>* %8, align 128, !tbaa !7
  %17 = load <32 x float>, <32 x float>* %8, align 128, !tbaa !7
  %18 = fdiv <32 x float> <float 1.000000e+00, float 1.000000e+00, float 1.000000e+00, float 1.000000e+00, float 1.000000e+00, float 1.000000e+00, float 1.000000e+00, float 1.000000e+00, float 1.000000e+00, float 1.000000e+00, float 1.000000e+00, float 1.000000e+00, float 1.000000e+00, float 1.000000e+00, float 1.000000e+00, float 1.000000e+00, float 1.000000e+00, float 1.000000e+00, float 1.000000e+00, float 1.000000e+00, float 1.000000e+00, float 1.000000e+00, float 1.000000e+00, float 1.000000e+00, float 1.000000e+00, float 1.000000e+00, float 1.000000e+00, float 1.000000e+00, float 1.000000e+00, float 1.000000e+00, float 1.000000e+00, float 1.000000e+00>, %17
  store <32 x float> %18, <32 x float>* %9, align 128, !tbaa !7
  %19 = call float @_ZN7details16__impl_hex2floatEj(i32 1065353224)
  %20 = insertelement <32 x float> undef, float %19, i32 0
  %21 = shufflevector <32 x float> %20, <32 x float> undef, <32 x i32> zeroinitializer
  store <32 x float> %21, <32 x float>* %10, align 128, !tbaa !7
  %22 = load <32 x float>, <32 x float>* %7, align 128, !tbaa !7
  %23 = load <32 x float>, <32 x float>* %10, align 128, !tbaa !7
  %24 = fmul <32 x float> %22, %23
  store <32 x float> %24, <32 x float>* %7, align 128, !tbaa !7
  %25 = load <32 x float>, <32 x float>* %7, align 128, !tbaa !7
  %26 = load <32 x float>, <32 x float>* %9, align 128, !tbaa !7
  %27 = fmul <32 x float> %25, %26
  store <32 x float> %27, <32 x float>* %11, align 128, !tbaa !7
  %28 = load <32 x float>, <32 x float>* %11, align 128, !tbaa !7
  %29 = fptosi <32 x float> %28 to <32 x i32>
  %30 = trunc <32 x i32> %29 to <32 x i16>
  store <32 x i16> %30, <32 x i16>* %12, align 64, !tbaa !7
  %31 = load <32 x i16>, <32 x i16>* %4, align 64, !tbaa !7
  %32 = sext <32 x i16> %31 to <32 x i32>
  %33 = load <32 x i16>, <32 x i16>* %12, align 64, !tbaa !7
  %34 = sext <32 x i16> %33 to <32 x i32>
  %35 = load <32 x i16>, <32 x i16>* %5, align 64, !tbaa !7
  %36 = sext <32 x i16> %35 to <32 x i32>
  %37 = mul <32 x i32> %34, %36
  %38 = sub <32 x i32> %32, %37
  %39 = trunc <32 x i32> %38 to <32 x i16>
  call void @llvm.genx.vstore.v32i16.p0v32i16(<32 x i16> %39, <32 x i16>* %2)
  %40 = load <32 x i16>, <32 x i16>* %12, align 64, !tbaa !7
  ret <32 x i16> %40
}

; Function Attrs: noinline nounwind
define internal signext i16 @_Z24__cm_intrinsic_impl_sremss(i16 signext, i16 signext) #3 {
  %3 = alloca i16, align 2
  %4 = alloca i16, align 2
  %5 = alloca <1 x i16>, align 2
  %6 = alloca <1 x i16>, align 2
  %7 = alloca <1 x i16>, align 2
  store i16 %0, i16* %3, align 2, !tbaa !11
  store i16 %1, i16* %4, align 2, !tbaa !11
  %8 = load i16, i16* %3, align 2, !tbaa !11
  %9 = insertelement <1 x i16> undef, i16 %8, i32 0
  %10 = shufflevector <1 x i16> %9, <1 x i16> undef, <1 x i32> zeroinitializer
  store <1 x i16> %10, <1 x i16>* %5, align 2, !tbaa !7
  %11 = load i16, i16* %4, align 2, !tbaa !11
  %12 = insertelement <1 x i16> undef, i16 %11, i32 0
  %13 = shufflevector <1 x i16> %12, <1 x i16> undef, <1 x i32> zeroinitializer
  store <1 x i16> %13, <1 x i16>* %6, align 2, !tbaa !7
  %14 = load <1 x i16>, <1 x i16>* %5, align 2, !tbaa !7
  %15 = load <1 x i16>, <1 x i16>* %6, align 2, !tbaa !7
  %16 = call <1 x i16> @_ZN7details13__impl_divremILi1EEEu2CMvbT__sS1_S1_u2CMvrT__s(<1 x i16> %14, <1 x i16> %15, <1 x i16>* %7)
  %17 = load <1 x i16>, <1 x i16>* %7, align 2, !tbaa !7
  %18 = call <1 x i16> @llvm.genx.rdregioni.v1i16.v1i16.i16(<1 x i16> %17, i32 0, i32 1, i32 0, i16 0, i32 undef)
  %19 = extractelement <1 x i16> %18, i32 0
  ret i16 %19
}

; Function Attrs: noinline nounwind
define internal <1 x i16> @_Z24__cm_intrinsic_impl_sremu2CMvb1_sS_(<1 x i16>, <1 x i16>) #3 {
  %3 = alloca <1 x i16>, align 2
  %4 = alloca <1 x i16>, align 2
  %5 = alloca <1 x i16>, align 2
  store <1 x i16> %0, <1 x i16>* %3, align 2, !tbaa !7
  store <1 x i16> %1, <1 x i16>* %4, align 2, !tbaa !7
  %6 = load <1 x i16>, <1 x i16>* %3, align 2, !tbaa !7
  %7 = load <1 x i16>, <1 x i16>* %4, align 2, !tbaa !7
  %8 = call <1 x i16> @_ZN7details13__impl_divremILi1EEEu2CMvbT__sS1_S1_u2CMvrT__s(<1 x i16> %6, <1 x i16> %7, <1 x i16>* %5)
  %9 = load <1 x i16>, <1 x i16>* %5, align 2, !tbaa !7
  ret <1 x i16> %9
}

; Function Attrs: noinline nounwind
define internal <2 x i16> @_Z24__cm_intrinsic_impl_sremu2CMvb2_sS_(<2 x i16>, <2 x i16>) #5 {
  %3 = alloca <2 x i16>, align 4
  %4 = alloca <2 x i16>, align 4
  %5 = alloca <2 x i16>, align 4
  store <2 x i16> %0, <2 x i16>* %3, align 4, !tbaa !7
  store <2 x i16> %1, <2 x i16>* %4, align 4, !tbaa !7
  %6 = load <2 x i16>, <2 x i16>* %3, align 4, !tbaa !7
  %7 = load <2 x i16>, <2 x i16>* %4, align 4, !tbaa !7
  %8 = call <2 x i16> @_ZN7details13__impl_divremILi2EEEu2CMvbT__sS1_S1_u2CMvrT__s(<2 x i16> %6, <2 x i16> %7, <2 x i16>* %5)
  %9 = load <2 x i16>, <2 x i16>* %5, align 4, !tbaa !7
  ret <2 x i16> %9
}

; Function Attrs: noinline nounwind
define internal <4 x i16> @_Z24__cm_intrinsic_impl_sremu2CMvb4_sS_(<4 x i16>, <4 x i16>) #7 {
  %3 = alloca <4 x i16>, align 8
  %4 = alloca <4 x i16>, align 8
  %5 = alloca <4 x i16>, align 8
  store <4 x i16> %0, <4 x i16>* %3, align 8, !tbaa !7
  store <4 x i16> %1, <4 x i16>* %4, align 8, !tbaa !7
  %6 = load <4 x i16>, <4 x i16>* %3, align 8, !tbaa !7
  %7 = load <4 x i16>, <4 x i16>* %4, align 8, !tbaa !7
  %8 = call <4 x i16> @_ZN7details13__impl_divremILi4EEEu2CMvbT__sS1_S1_u2CMvrT__s(<4 x i16> %6, <4 x i16> %7, <4 x i16>* %5)
  %9 = load <4 x i16>, <4 x i16>* %5, align 8, !tbaa !7
  ret <4 x i16> %9
}

; Function Attrs: noinline nounwind
define internal <8 x i16> @_Z24__cm_intrinsic_impl_sremu2CMvb8_sS_(<8 x i16>, <8 x i16>) #9 {
  %3 = alloca <8 x i16>, align 16
  %4 = alloca <8 x i16>, align 16
  %5 = alloca <8 x i16>, align 16
  store <8 x i16> %0, <8 x i16>* %3, align 16, !tbaa !7
  store <8 x i16> %1, <8 x i16>* %4, align 16, !tbaa !7
  %6 = load <8 x i16>, <8 x i16>* %3, align 16, !tbaa !7
  %7 = load <8 x i16>, <8 x i16>* %4, align 16, !tbaa !7
  %8 = call <8 x i16> @_ZN7details13__impl_divremILi8EEEu2CMvbT__sS1_S1_u2CMvrT__s(<8 x i16> %6, <8 x i16> %7, <8 x i16>* %5)
  %9 = load <8 x i16>, <8 x i16>* %5, align 16, !tbaa !7
  ret <8 x i16> %9
}

; Function Attrs: noinline nounwind
define internal <16 x i16> @_Z24__cm_intrinsic_impl_sremu2CMvb16_sS_(<16 x i16>, <16 x i16>) #11 {
  %3 = alloca <16 x i16>, align 32
  %4 = alloca <16 x i16>, align 32
  %5 = alloca <16 x i16>, align 32
  store <16 x i16> %0, <16 x i16>* %3, align 32, !tbaa !7
  store <16 x i16> %1, <16 x i16>* %4, align 32, !tbaa !7
  %6 = load <16 x i16>, <16 x i16>* %3, align 32, !tbaa !7
  %7 = load <16 x i16>, <16 x i16>* %4, align 32, !tbaa !7
  %8 = call <16 x i16> @_ZN7details13__impl_divremILi16EEEu2CMvbT__sS1_S1_u2CMvrT__s(<16 x i16> %6, <16 x i16> %7, <16 x i16>* %5)
  %9 = load <16 x i16>, <16 x i16>* %5, align 32, !tbaa !7
  ret <16 x i16> %9
}

; Function Attrs: noinline nounwind
define internal <32 x i16> @_Z24__cm_intrinsic_impl_sremu2CMvb32_sS_(<32 x i16>, <32 x i16>) #13 {
  %3 = alloca <32 x i16>, align 64
  %4 = alloca <32 x i16>, align 64
  %5 = alloca <32 x i16>, align 64
  store <32 x i16> %0, <32 x i16>* %3, align 64, !tbaa !7
  store <32 x i16> %1, <32 x i16>* %4, align 64, !tbaa !7
  %6 = load <32 x i16>, <32 x i16>* %3, align 64, !tbaa !7
  %7 = load <32 x i16>, <32 x i16>* %4, align 64, !tbaa !7
  %8 = call <32 x i16> @_ZN7details13__impl_divremILi32EEEu2CMvbT__sS1_S1_u2CMvrT__s(<32 x i16> %6, <32 x i16> %7, <32 x i16>* %5)
  %9 = load <32 x i16>, <32 x i16>* %5, align 64, !tbaa !7
  ret <32 x i16> %9
}

; Function Attrs: noinline nounwind
define internal i32 @_Z24__cm_intrinsic_impl_sdivii(i32, i32) #14 {
  %3 = alloca i32, align 4
  %4 = alloca i32, align 4
  %5 = alloca <1 x i32>, align 4
  %6 = alloca <1 x i32>, align 4
  %7 = alloca <1 x i32>, align 4
  %8 = alloca <1 x i32>, align 4
  store i32 %0, i32* %3, align 4, !tbaa !13
  store i32 %1, i32* %4, align 4, !tbaa !13
  %9 = load i32, i32* %3, align 4, !tbaa !13
  %10 = insertelement <1 x i32> undef, i32 %9, i32 0
  %11 = shufflevector <1 x i32> %10, <1 x i32> undef, <1 x i32> zeroinitializer
  store <1 x i32> %11, <1 x i32>* %5, align 4, !tbaa !7
  %12 = load i32, i32* %4, align 4, !tbaa !13
  %13 = insertelement <1 x i32> undef, i32 %12, i32 0
  %14 = shufflevector <1 x i32> %13, <1 x i32> undef, <1 x i32> zeroinitializer
  store <1 x i32> %14, <1 x i32>* %6, align 4, !tbaa !7
  %15 = load <1 x i32>, <1 x i32>* %5, align 4, !tbaa !7
  %16 = load <1 x i32>, <1 x i32>* %6, align 4, !tbaa !7
  %17 = call <1 x i32> @_ZN7details13__impl_divremILi1EEEu2CMvbT__iS1_S1_u2CMvrT__j(<1 x i32> %15, <1 x i32> %16, <1 x i32>* %7)
  store <1 x i32> %17, <1 x i32>* %8, align 4, !tbaa !7
  %18 = load <1 x i32>, <1 x i32>* %8, align 4, !tbaa !7
  %19 = call <1 x i32> @llvm.genx.rdregioni.v1i32.v1i32.i16(<1 x i32> %18, i32 0, i32 1, i32 0, i16 0, i32 undef)
  %20 = extractelement <1 x i32> %19, i32 0
  ret i32 %20
}

; Function Attrs: alwaysinline inlinehint nounwind
define internal <1 x i32> @_ZN7details13__impl_divremILi1EEEu2CMvbT__iS1_S1_u2CMvrT__j(<1 x i32>, <1 x i32>, <1 x i32>*) #4 comdat {
  %4 = alloca <1 x i32>, align 4
  %5 = alloca <1 x i32>, align 4
  %6 = alloca <1 x i32>*, align 4
  %7 = alloca <1 x float>, align 4
  %8 = alloca <1 x float>, align 4
  %9 = alloca <1 x float>, align 4
  %10 = alloca <1 x float>, align 4
  %11 = alloca <1 x float>, align 4
  %12 = alloca <1 x float>, align 4
  %13 = alloca <1 x float>, align 4
  %14 = alloca <1 x float>, align 4
  %15 = alloca <1 x float>, align 4
  %16 = alloca <1 x i32>, align 4
  %17 = alloca <1 x i32>, align 4
  %18 = alloca <1 x i32>, align 4
  %19 = alloca <1 x i32>, align 4
  %20 = alloca <1 x i32>, align 4
  %21 = alloca <1 x i32>, align 4
  %22 = alloca <1 x i32>, align 4
  %23 = alloca <1 x i32>, align 4
  %24 = alloca <1 x i32>, align 4
  %25 = alloca <1 x i32>, align 4
  %26 = alloca <1 x i32>, align 4
  %27 = alloca <1 x i32>, align 4
  %28 = alloca <1 x i32>, align 4
  %29 = alloca <1 x i32>, align 4
  %30 = alloca <1 x float>, align 4
  store <1 x i32> %0, <1 x i32>* %4, align 4, !tbaa !7
  store <1 x i32> %1, <1 x i32>* %5, align 4, !tbaa !7
  store <1 x i32>* %2, <1 x i32>** %6, align 4, !tbaa !7
  %31 = load <1 x i32>, <1 x i32>* %4, align 4, !tbaa !7
  %32 = ashr <1 x i32> %31, <i32 31>
  store <1 x i32> %32, <1 x i32>* %27, align 4, !tbaa !7
  %33 = load <1 x i32>, <1 x i32>* %5, align 4, !tbaa !7
  %34 = ashr <1 x i32> %33, <i32 31>
  store <1 x i32> %34, <1 x i32>* %28, align 4, !tbaa !7
  %35 = load <1 x i32>, <1 x i32>* %4, align 4, !tbaa !7
  %36 = load <1 x i32>, <1 x i32>* %27, align 4, !tbaa !7
  %37 = add <1 x i32> %35, %36
  %38 = load <1 x i32>, <1 x i32>* %27, align 4, !tbaa !7
  %39 = xor <1 x i32> %37, %38
  store <1 x i32> %39, <1 x i32>* %24, align 4, !tbaa !7
  %40 = load <1 x i32>, <1 x i32>* %5, align 4, !tbaa !7
  %41 = load <1 x i32>, <1 x i32>* %28, align 4, !tbaa !7
  %42 = add <1 x i32> %40, %41
  %43 = load <1 x i32>, <1 x i32>* %28, align 4, !tbaa !7
  %44 = xor <1 x i32> %42, %43
  store <1 x i32> %44, <1 x i32>* %25, align 4, !tbaa !7
  %45 = load <1 x i32>, <1 x i32>* %25, align 4, !tbaa !7
  %46 = uitofp <1 x i32> %45 to <1 x float>
  store <1 x float> %46, <1 x float>* %9, align 4, !tbaa !7
  %47 = load <1 x float>, <1 x float>* %9, align 4, !tbaa !7
  %48 = fptosi <1 x float> %47 to <1 x i32>
  store <1 x i32> %48, <1 x i32>* %17, align 4, !tbaa !7
  %49 = load <1 x i32>, <1 x i32>* %25, align 4, !tbaa !7
  %50 = load <1 x i32>, <1 x i32>* %17, align 4, !tbaa !7
  %51 = sub <1 x i32> %49, %50
  store <1 x i32> %51, <1 x i32>* %19, align 4, !tbaa !7
  %52 = load <1 x i32>, <1 x i32>* %19, align 4, !tbaa !7
  %53 = uitofp <1 x i32> %52 to <1 x float>
  store <1 x float> %53, <1 x float>* %10, align 4, !tbaa !7
  %54 = load <1 x i32>, <1 x i32>* %24, align 4, !tbaa !7
  %55 = uitofp <1 x i32> %54 to <1 x float>
  store <1 x float> %55, <1 x float>* %7, align 4, !tbaa !7
  %56 = load <1 x float>, <1 x float>* %7, align 4, !tbaa !7
  %57 = fptosi <1 x float> %56 to <1 x i32>
  store <1 x i32> %57, <1 x i32>* %16, align 4, !tbaa !7
  %58 = load <1 x i32>, <1 x i32>* %24, align 4, !tbaa !7
  %59 = load <1 x i32>, <1 x i32>* %16, align 4, !tbaa !7
  %60 = sub <1 x i32> %58, %59
  store <1 x i32> %60, <1 x i32>* %18, align 4, !tbaa !7
  %61 = load <1 x i32>, <1 x i32>* %18, align 4, !tbaa !7
  %62 = uitofp <1 x i32> %61 to <1 x float>
  store <1 x float> %62, <1 x float>* %8, align 4, !tbaa !7
  %63 = load <1 x float>, <1 x float>* %9, align 4, !tbaa !7
  %64 = fdiv <1 x float> <float 1.000000e+00>, %63
  store <1 x float> %64, <1 x float>* %11, align 4, !tbaa !7
  %65 = call float @_ZN7details16__impl_hex2floatEj(i32 -1262485504)
  %66 = insertelement <1 x float> undef, float %65, i32 0
  %67 = shufflevector <1 x float> %66, <1 x float> undef, <1 x i32> zeroinitializer
  store <1 x float> %67, <1 x float>* %30, align 4, !tbaa !7
  %68 = load <1 x float>, <1 x float>* %30, align 4, !tbaa !7
  %69 = load <1 x float>, <1 x float>* %11, align 4, !tbaa !7
  %70 = fmul <1 x float> %68, %69
  %71 = load <1 x float>, <1 x float>* %11, align 4, !tbaa !7
  %72 = fadd <1 x float> %71, %70
  store <1 x float> %72, <1 x float>* %11, align 4, !tbaa !7
  %73 = load <1 x float>, <1 x float>* %7, align 4, !tbaa !7
  %74 = load <1 x float>, <1 x float>* %11, align 4, !tbaa !7
  %75 = fmul <1 x float> %73, %74
  store <1 x float> %75, <1 x float>* %12, align 4, !tbaa !7
  %76 = load <1 x float>, <1 x float>* %12, align 4, !tbaa !7
  %77 = fptosi <1 x float> %76 to <1 x i32>
  store <1 x i32> %77, <1 x i32>* %20, align 4, !tbaa !7
  %78 = load <1 x i32>, <1 x i32>* %20, align 4, !tbaa !7
  %79 = uitofp <1 x i32> %78 to <1 x float>
  store <1 x float> %79, <1 x float>* %12, align 4, !tbaa !7
  %80 = load <1 x float>, <1 x float>* %7, align 4, !tbaa !7
  %81 = load <1 x float>, <1 x float>* %9, align 4, !tbaa !7
  %82 = load <1 x float>, <1 x float>* %12, align 4, !tbaa !7
  %83 = fmul <1 x float> %81, %82
  %84 = fsub <1 x float> %80, %83
  store <1 x float> %84, <1 x float>* %14, align 4, !tbaa !7
  %85 = load <1 x float>, <1 x float>* %8, align 4, !tbaa !7
  %86 = load <1 x float>, <1 x float>* %10, align 4, !tbaa !7
  %87 = load <1 x float>, <1 x float>* %12, align 4, !tbaa !7
  %88 = fmul <1 x float> %86, %87
  %89 = fsub <1 x float> %85, %88
  store <1 x float> %89, <1 x float>* %15, align 4, !tbaa !7
  %90 = load <1 x float>, <1 x float>* %14, align 4, !tbaa !7
  %91 = load <1 x float>, <1 x float>* %15, align 4, !tbaa !7
  %92 = fadd <1 x float> %90, %91
  store <1 x float> %92, <1 x float>* %15, align 4, !tbaa !7
  %93 = load <1 x float>, <1 x float>* %11, align 4, !tbaa !7
  %94 = load <1 x float>, <1 x float>* %15, align 4, !tbaa !7
  %95 = fmul <1 x float> %93, %94
  store <1 x float> %95, <1 x float>* %13, align 4, !tbaa !7
  %96 = load <1 x float>, <1 x float>* %13, align 4, !tbaa !7
  %97 = fptosi <1 x float> %96 to <1 x i32>
  store <1 x i32> %97, <1 x i32>* %21, align 4, !tbaa !7
  %98 = load <1 x i32>, <1 x i32>* %20, align 4, !tbaa !7
  %99 = load <1 x i32>, <1 x i32>* %21, align 4, !tbaa !7
  %100 = add <1 x i32> %98, %99
  store <1 x i32> %100, <1 x i32>* %22, align 4, !tbaa !7
  %101 = load <1 x i32>, <1 x i32>* %27, align 4, !tbaa !7
  %102 = load <1 x i32>, <1 x i32>* %28, align 4, !tbaa !7
  %103 = xor <1 x i32> %101, %102
  store <1 x i32> %103, <1 x i32>* %29, align 4, !tbaa !7
  %104 = load <1 x i32>, <1 x i32>* %24, align 4, !tbaa !7
  %105 = load <1 x i32>, <1 x i32>* %25, align 4, !tbaa !7
  %106 = load <1 x i32>, <1 x i32>* %22, align 4, !tbaa !7
  %107 = mul <1 x i32> %105, %106
  %108 = sub <1 x i32> %104, %107
  store <1 x i32> %108, <1 x i32>* %23, align 4, !tbaa !7
  %109 = load <1 x i32>, <1 x i32>* %23, align 4, !tbaa !7
  %110 = load <1 x i32>, <1 x i32>* %25, align 4, !tbaa !7
  %111 = icmp uge <1 x i32> %109, %110
  %112 = zext <1 x i1> %111 to <1 x i16>
  %113 = trunc <1 x i16> %112 to <1 x i1>
  %114 = select <1 x i1> %113, <1 x i32> <i32 -1>, <1 x i32> zeroinitializer
  store <1 x i32> %114, <1 x i32>* %26, align 4, !tbaa !7
  %115 = load <1 x i32>, <1 x i32>* %26, align 4, !tbaa !7
  %116 = and <1 x i32> %115, <i32 1>
  %117 = load <1 x i32>, <1 x i32>* %22, align 4, !tbaa !7
  %118 = add <1 x i32> %117, %116
  store <1 x i32> %118, <1 x i32>* %22, align 4, !tbaa !7
  %119 = load <1 x i32>, <1 x i32>* %25, align 4, !tbaa !7
  %120 = load <1 x i32>, <1 x i32>* %26, align 4, !tbaa !7
  %121 = and <1 x i32> %119, %120
  %122 = load <1 x i32>, <1 x i32>* %23, align 4, !tbaa !7
  %123 = sub <1 x i32> %122, %121
  store <1 x i32> %123, <1 x i32>* %23, align 4, !tbaa !7
  %124 = load <1 x i32>, <1 x i32>* %27, align 4, !tbaa !7
  %125 = load <1 x i32>, <1 x i32>* %23, align 4, !tbaa !7
  %126 = add <1 x i32> %124, %125
  %127 = load <1 x i32>, <1 x i32>* %27, align 4, !tbaa !7
  %128 = xor <1 x i32> %126, %127
  store <1 x i32> %128, <1 x i32>* %2
  %129 = load <1 x i32>, <1 x i32>* %29, align 4, !tbaa !7
  %130 = load <1 x i32>, <1 x i32>* %22, align 4, !tbaa !7
  %131 = add <1 x i32> %129, %130
  %132 = load <1 x i32>, <1 x i32>* %29, align 4, !tbaa !7
  %133 = xor <1 x i32> %131, %132
  store <1 x i32> %133, <1 x i32>* %22, align 4, !tbaa !7
  %134 = load <1 x i32>, <1 x i32>* %22, align 4, !tbaa !7
  ret <1 x i32> %134
}

; Function Attrs: nounwind readnone
declare <1 x i32> @llvm.genx.rdregioni.v1i32.v1i32.i16(<1 x i32>, i32, i32, i32, i16, i32) #2

; Function Attrs: noinline nounwind
define internal <1 x i32> @_Z24__cm_intrinsic_impl_sdivu2CMvb1_iS_(<1 x i32>, <1 x i32>) #14 {
  %3 = alloca <1 x i32>, align 4
  %4 = alloca <1 x i32>, align 4
  %5 = alloca <1 x i32>, align 4
  %6 = alloca <1 x i32>, align 4
  store <1 x i32> %0, <1 x i32>* %3, align 4, !tbaa !7
  store <1 x i32> %1, <1 x i32>* %4, align 4, !tbaa !7
  %7 = load <1 x i32>, <1 x i32>* %3, align 4, !tbaa !7
  %8 = load <1 x i32>, <1 x i32>* %4, align 4, !tbaa !7
  %9 = call <1 x i32> @_ZN7details13__impl_divremILi1EEEu2CMvbT__iS1_S1_u2CMvrT__j(<1 x i32> %7, <1 x i32> %8, <1 x i32>* %5)
  store <1 x i32> %9, <1 x i32>* %6, align 4, !tbaa !7
  %10 = load <1 x i32>, <1 x i32>* %6, align 4, !tbaa !7
  ret <1 x i32> %10
}

; Function Attrs: noinline nounwind
define internal <2 x i32> @_Z24__cm_intrinsic_impl_sdivu2CMvb2_iS_(<2 x i32>, <2 x i32>) #15 {
  %3 = alloca <2 x i32>, align 8
  %4 = alloca <2 x i32>, align 8
  %5 = alloca <2 x i32>, align 8
  %6 = alloca <2 x i32>, align 8
  store <2 x i32> %0, <2 x i32>* %3, align 8, !tbaa !7
  store <2 x i32> %1, <2 x i32>* %4, align 8, !tbaa !7
  %7 = load <2 x i32>, <2 x i32>* %3, align 8, !tbaa !7
  %8 = load <2 x i32>, <2 x i32>* %4, align 8, !tbaa !7
  %9 = call <2 x i32> @_ZN7details13__impl_divremILi2EEEu2CMvbT__iS1_S1_u2CMvrT__j(<2 x i32> %7, <2 x i32> %8, <2 x i32>* %5)
  store <2 x i32> %9, <2 x i32>* %6, align 8, !tbaa !7
  %10 = load <2 x i32>, <2 x i32>* %6, align 8, !tbaa !7
  ret <2 x i32> %10
}

; Function Attrs: alwaysinline inlinehint nounwind
define internal <2 x i32> @_ZN7details13__impl_divremILi2EEEu2CMvbT__iS1_S1_u2CMvrT__j(<2 x i32>, <2 x i32>, <2 x i32>*) #6 comdat {
  %4 = alloca <2 x i32>, align 8
  %5 = alloca <2 x i32>, align 8
  %6 = alloca <2 x i32>*, align 8
  %7 = alloca <2 x float>, align 8
  %8 = alloca <2 x float>, align 8
  %9 = alloca <2 x float>, align 8
  %10 = alloca <2 x float>, align 8
  %11 = alloca <2 x float>, align 8
  %12 = alloca <2 x float>, align 8
  %13 = alloca <2 x float>, align 8
  %14 = alloca <2 x float>, align 8
  %15 = alloca <2 x float>, align 8
  %16 = alloca <2 x i32>, align 8
  %17 = alloca <2 x i32>, align 8
  %18 = alloca <2 x i32>, align 8
  %19 = alloca <2 x i32>, align 8
  %20 = alloca <2 x i32>, align 8
  %21 = alloca <2 x i32>, align 8
  %22 = alloca <2 x i32>, align 8
  %23 = alloca <2 x i32>, align 8
  %24 = alloca <2 x i32>, align 8
  %25 = alloca <2 x i32>, align 8
  %26 = alloca <2 x i32>, align 8
  %27 = alloca <2 x i32>, align 8
  %28 = alloca <2 x i32>, align 8
  %29 = alloca <2 x i32>, align 8
  %30 = alloca <2 x float>, align 8
  store <2 x i32> %0, <2 x i32>* %4, align 8, !tbaa !7
  store <2 x i32> %1, <2 x i32>* %5, align 8, !tbaa !7
  store <2 x i32>* %2, <2 x i32>** %6, align 8, !tbaa !7
  %31 = load <2 x i32>, <2 x i32>* %4, align 8, !tbaa !7
  %32 = ashr <2 x i32> %31, <i32 31, i32 31>
  store <2 x i32> %32, <2 x i32>* %27, align 8, !tbaa !7
  %33 = load <2 x i32>, <2 x i32>* %5, align 8, !tbaa !7
  %34 = ashr <2 x i32> %33, <i32 31, i32 31>
  store <2 x i32> %34, <2 x i32>* %28, align 8, !tbaa !7
  %35 = load <2 x i32>, <2 x i32>* %4, align 8, !tbaa !7
  %36 = load <2 x i32>, <2 x i32>* %27, align 8, !tbaa !7
  %37 = add <2 x i32> %35, %36
  %38 = load <2 x i32>, <2 x i32>* %27, align 8, !tbaa !7
  %39 = xor <2 x i32> %37, %38
  store <2 x i32> %39, <2 x i32>* %24, align 8, !tbaa !7
  %40 = load <2 x i32>, <2 x i32>* %5, align 8, !tbaa !7
  %41 = load <2 x i32>, <2 x i32>* %28, align 8, !tbaa !7
  %42 = add <2 x i32> %40, %41
  %43 = load <2 x i32>, <2 x i32>* %28, align 8, !tbaa !7
  %44 = xor <2 x i32> %42, %43
  store <2 x i32> %44, <2 x i32>* %25, align 8, !tbaa !7
  %45 = load <2 x i32>, <2 x i32>* %25, align 8, !tbaa !7
  %46 = uitofp <2 x i32> %45 to <2 x float>
  store <2 x float> %46, <2 x float>* %9, align 8, !tbaa !7
  %47 = load <2 x float>, <2 x float>* %9, align 8, !tbaa !7
  %48 = fptosi <2 x float> %47 to <2 x i32>
  store <2 x i32> %48, <2 x i32>* %17, align 8, !tbaa !7
  %49 = load <2 x i32>, <2 x i32>* %25, align 8, !tbaa !7
  %50 = load <2 x i32>, <2 x i32>* %17, align 8, !tbaa !7
  %51 = sub <2 x i32> %49, %50
  store <2 x i32> %51, <2 x i32>* %19, align 8, !tbaa !7
  %52 = load <2 x i32>, <2 x i32>* %19, align 8, !tbaa !7
  %53 = uitofp <2 x i32> %52 to <2 x float>
  store <2 x float> %53, <2 x float>* %10, align 8, !tbaa !7
  %54 = load <2 x i32>, <2 x i32>* %24, align 8, !tbaa !7
  %55 = uitofp <2 x i32> %54 to <2 x float>
  store <2 x float> %55, <2 x float>* %7, align 8, !tbaa !7
  %56 = load <2 x float>, <2 x float>* %7, align 8, !tbaa !7
  %57 = fptosi <2 x float> %56 to <2 x i32>
  store <2 x i32> %57, <2 x i32>* %16, align 8, !tbaa !7
  %58 = load <2 x i32>, <2 x i32>* %24, align 8, !tbaa !7
  %59 = load <2 x i32>, <2 x i32>* %16, align 8, !tbaa !7
  %60 = sub <2 x i32> %58, %59
  store <2 x i32> %60, <2 x i32>* %18, align 8, !tbaa !7
  %61 = load <2 x i32>, <2 x i32>* %18, align 8, !tbaa !7
  %62 = uitofp <2 x i32> %61 to <2 x float>
  store <2 x float> %62, <2 x float>* %8, align 8, !tbaa !7
  %63 = load <2 x float>, <2 x float>* %9, align 8, !tbaa !7
  %64 = fdiv <2 x float> <float 1.000000e+00, float 1.000000e+00>, %63
  store <2 x float> %64, <2 x float>* %11, align 8, !tbaa !7
  %65 = call float @_ZN7details16__impl_hex2floatEj(i32 -1262485504)
  %66 = insertelement <2 x float> undef, float %65, i32 0
  %67 = shufflevector <2 x float> %66, <2 x float> undef, <2 x i32> zeroinitializer
  store <2 x float> %67, <2 x float>* %30, align 8, !tbaa !7
  %68 = load <2 x float>, <2 x float>* %30, align 8, !tbaa !7
  %69 = load <2 x float>, <2 x float>* %11, align 8, !tbaa !7
  %70 = fmul <2 x float> %68, %69
  %71 = load <2 x float>, <2 x float>* %11, align 8, !tbaa !7
  %72 = fadd <2 x float> %71, %70
  store <2 x float> %72, <2 x float>* %11, align 8, !tbaa !7
  %73 = load <2 x float>, <2 x float>* %7, align 8, !tbaa !7
  %74 = load <2 x float>, <2 x float>* %11, align 8, !tbaa !7
  %75 = fmul <2 x float> %73, %74
  store <2 x float> %75, <2 x float>* %12, align 8, !tbaa !7
  %76 = load <2 x float>, <2 x float>* %12, align 8, !tbaa !7
  %77 = fptosi <2 x float> %76 to <2 x i32>
  store <2 x i32> %77, <2 x i32>* %20, align 8, !tbaa !7
  %78 = load <2 x i32>, <2 x i32>* %20, align 8, !tbaa !7
  %79 = uitofp <2 x i32> %78 to <2 x float>
  store <2 x float> %79, <2 x float>* %12, align 8, !tbaa !7
  %80 = load <2 x float>, <2 x float>* %7, align 8, !tbaa !7
  %81 = load <2 x float>, <2 x float>* %9, align 8, !tbaa !7
  %82 = load <2 x float>, <2 x float>* %12, align 8, !tbaa !7
  %83 = fmul <2 x float> %81, %82
  %84 = fsub <2 x float> %80, %83
  store <2 x float> %84, <2 x float>* %14, align 8, !tbaa !7
  %85 = load <2 x float>, <2 x float>* %8, align 8, !tbaa !7
  %86 = load <2 x float>, <2 x float>* %10, align 8, !tbaa !7
  %87 = load <2 x float>, <2 x float>* %12, align 8, !tbaa !7
  %88 = fmul <2 x float> %86, %87
  %89 = fsub <2 x float> %85, %88
  store <2 x float> %89, <2 x float>* %15, align 8, !tbaa !7
  %90 = load <2 x float>, <2 x float>* %14, align 8, !tbaa !7
  %91 = load <2 x float>, <2 x float>* %15, align 8, !tbaa !7
  %92 = fadd <2 x float> %90, %91
  store <2 x float> %92, <2 x float>* %15, align 8, !tbaa !7
  %93 = load <2 x float>, <2 x float>* %11, align 8, !tbaa !7
  %94 = load <2 x float>, <2 x float>* %15, align 8, !tbaa !7
  %95 = fmul <2 x float> %93, %94
  store <2 x float> %95, <2 x float>* %13, align 8, !tbaa !7
  %96 = load <2 x float>, <2 x float>* %13, align 8, !tbaa !7
  %97 = fptosi <2 x float> %96 to <2 x i32>
  store <2 x i32> %97, <2 x i32>* %21, align 8, !tbaa !7
  %98 = load <2 x i32>, <2 x i32>* %20, align 8, !tbaa !7
  %99 = load <2 x i32>, <2 x i32>* %21, align 8, !tbaa !7
  %100 = add <2 x i32> %98, %99
  store <2 x i32> %100, <2 x i32>* %22, align 8, !tbaa !7
  %101 = load <2 x i32>, <2 x i32>* %27, align 8, !tbaa !7
  %102 = load <2 x i32>, <2 x i32>* %28, align 8, !tbaa !7
  %103 = xor <2 x i32> %101, %102
  store <2 x i32> %103, <2 x i32>* %29, align 8, !tbaa !7
  %104 = load <2 x i32>, <2 x i32>* %24, align 8, !tbaa !7
  %105 = load <2 x i32>, <2 x i32>* %25, align 8, !tbaa !7
  %106 = load <2 x i32>, <2 x i32>* %22, align 8, !tbaa !7
  %107 = mul <2 x i32> %105, %106
  %108 = sub <2 x i32> %104, %107
  store <2 x i32> %108, <2 x i32>* %23, align 8, !tbaa !7
  %109 = load <2 x i32>, <2 x i32>* %23, align 8, !tbaa !7
  %110 = load <2 x i32>, <2 x i32>* %25, align 8, !tbaa !7
  %111 = icmp uge <2 x i32> %109, %110
  %112 = zext <2 x i1> %111 to <2 x i16>
  %113 = trunc <2 x i16> %112 to <2 x i1>
  %114 = select <2 x i1> %113, <2 x i32> <i32 -1, i32 -1>, <2 x i32> zeroinitializer
  store <2 x i32> %114, <2 x i32>* %26, align 8, !tbaa !7
  %115 = load <2 x i32>, <2 x i32>* %26, align 8, !tbaa !7
  %116 = and <2 x i32> %115, <i32 1, i32 1>
  %117 = load <2 x i32>, <2 x i32>* %22, align 8, !tbaa !7
  %118 = add <2 x i32> %117, %116
  store <2 x i32> %118, <2 x i32>* %22, align 8, !tbaa !7
  %119 = load <2 x i32>, <2 x i32>* %25, align 8, !tbaa !7
  %120 = load <2 x i32>, <2 x i32>* %26, align 8, !tbaa !7
  %121 = and <2 x i32> %119, %120
  %122 = load <2 x i32>, <2 x i32>* %23, align 8, !tbaa !7
  %123 = sub <2 x i32> %122, %121
  store <2 x i32> %123, <2 x i32>* %23, align 8, !tbaa !7
  %124 = load <2 x i32>, <2 x i32>* %27, align 8, !tbaa !7
  %125 = load <2 x i32>, <2 x i32>* %23, align 8, !tbaa !7
  %126 = add <2 x i32> %124, %125
  %127 = load <2 x i32>, <2 x i32>* %27, align 8, !tbaa !7
  %128 = xor <2 x i32> %126, %127
  call void @llvm.genx.vstore.v2i32.p0v2i32(<2 x i32> %128, <2 x i32>* %2)
  %129 = load <2 x i32>, <2 x i32>* %29, align 8, !tbaa !7
  %130 = load <2 x i32>, <2 x i32>* %22, align 8, !tbaa !7
  %131 = add <2 x i32> %129, %130
  %132 = load <2 x i32>, <2 x i32>* %29, align 8, !tbaa !7
  %133 = xor <2 x i32> %131, %132
  store <2 x i32> %133, <2 x i32>* %22, align 8, !tbaa !7
  %134 = load <2 x i32>, <2 x i32>* %22, align 8, !tbaa !7
  ret <2 x i32> %134
}

; Function Attrs: noinline nounwind
define internal <4 x i32> @_Z24__cm_intrinsic_impl_sdivu2CMvb4_iS_(<4 x i32>, <4 x i32>) #16 {
  %3 = alloca <4 x i32>, align 16
  %4 = alloca <4 x i32>, align 16
  %5 = alloca <4 x i32>, align 16
  %6 = alloca <4 x i32>, align 16
  store <4 x i32> %0, <4 x i32>* %3, align 16, !tbaa !7
  store <4 x i32> %1, <4 x i32>* %4, align 16, !tbaa !7
  %7 = load <4 x i32>, <4 x i32>* %3, align 16, !tbaa !7
  %8 = load <4 x i32>, <4 x i32>* %4, align 16, !tbaa !7
  %9 = call <4 x i32> @_ZN7details13__impl_divremILi4EEEu2CMvbT__iS1_S1_u2CMvrT__j(<4 x i32> %7, <4 x i32> %8, <4 x i32>* %5)
  store <4 x i32> %9, <4 x i32>* %6, align 16, !tbaa !7
  %10 = load <4 x i32>, <4 x i32>* %6, align 16, !tbaa !7
  ret <4 x i32> %10
}

; Function Attrs: alwaysinline inlinehint nounwind
define internal <4 x i32> @_ZN7details13__impl_divremILi4EEEu2CMvbT__iS1_S1_u2CMvrT__j(<4 x i32>, <4 x i32>, <4 x i32>*) #8 comdat {
  %4 = alloca <4 x i32>, align 16
  %5 = alloca <4 x i32>, align 16
  %6 = alloca <4 x i32>*, align 16
  %7 = alloca <4 x float>, align 16
  %8 = alloca <4 x float>, align 16
  %9 = alloca <4 x float>, align 16
  %10 = alloca <4 x float>, align 16
  %11 = alloca <4 x float>, align 16
  %12 = alloca <4 x float>, align 16
  %13 = alloca <4 x float>, align 16
  %14 = alloca <4 x float>, align 16
  %15 = alloca <4 x float>, align 16
  %16 = alloca <4 x i32>, align 16
  %17 = alloca <4 x i32>, align 16
  %18 = alloca <4 x i32>, align 16
  %19 = alloca <4 x i32>, align 16
  %20 = alloca <4 x i32>, align 16
  %21 = alloca <4 x i32>, align 16
  %22 = alloca <4 x i32>, align 16
  %23 = alloca <4 x i32>, align 16
  %24 = alloca <4 x i32>, align 16
  %25 = alloca <4 x i32>, align 16
  %26 = alloca <4 x i32>, align 16
  %27 = alloca <4 x i32>, align 16
  %28 = alloca <4 x i32>, align 16
  %29 = alloca <4 x i32>, align 16
  %30 = alloca <4 x float>, align 16
  store <4 x i32> %0, <4 x i32>* %4, align 16, !tbaa !7
  store <4 x i32> %1, <4 x i32>* %5, align 16, !tbaa !7
  store <4 x i32>* %2, <4 x i32>** %6, align 16, !tbaa !7
  %31 = load <4 x i32>, <4 x i32>* %4, align 16, !tbaa !7
  %32 = ashr <4 x i32> %31, <i32 31, i32 31, i32 31, i32 31>
  store <4 x i32> %32, <4 x i32>* %27, align 16, !tbaa !7
  %33 = load <4 x i32>, <4 x i32>* %5, align 16, !tbaa !7
  %34 = ashr <4 x i32> %33, <i32 31, i32 31, i32 31, i32 31>
  store <4 x i32> %34, <4 x i32>* %28, align 16, !tbaa !7
  %35 = load <4 x i32>, <4 x i32>* %4, align 16, !tbaa !7
  %36 = load <4 x i32>, <4 x i32>* %27, align 16, !tbaa !7
  %37 = add <4 x i32> %35, %36
  %38 = load <4 x i32>, <4 x i32>* %27, align 16, !tbaa !7
  %39 = xor <4 x i32> %37, %38
  store <4 x i32> %39, <4 x i32>* %24, align 16, !tbaa !7
  %40 = load <4 x i32>, <4 x i32>* %5, align 16, !tbaa !7
  %41 = load <4 x i32>, <4 x i32>* %28, align 16, !tbaa !7
  %42 = add <4 x i32> %40, %41
  %43 = load <4 x i32>, <4 x i32>* %28, align 16, !tbaa !7
  %44 = xor <4 x i32> %42, %43
  store <4 x i32> %44, <4 x i32>* %25, align 16, !tbaa !7
  %45 = load <4 x i32>, <4 x i32>* %25, align 16, !tbaa !7
  %46 = uitofp <4 x i32> %45 to <4 x float>
  store <4 x float> %46, <4 x float>* %9, align 16, !tbaa !7
  %47 = load <4 x float>, <4 x float>* %9, align 16, !tbaa !7
  %48 = fptosi <4 x float> %47 to <4 x i32>
  store <4 x i32> %48, <4 x i32>* %17, align 16, !tbaa !7
  %49 = load <4 x i32>, <4 x i32>* %25, align 16, !tbaa !7
  %50 = load <4 x i32>, <4 x i32>* %17, align 16, !tbaa !7
  %51 = sub <4 x i32> %49, %50
  store <4 x i32> %51, <4 x i32>* %19, align 16, !tbaa !7
  %52 = load <4 x i32>, <4 x i32>* %19, align 16, !tbaa !7
  %53 = uitofp <4 x i32> %52 to <4 x float>
  store <4 x float> %53, <4 x float>* %10, align 16, !tbaa !7
  %54 = load <4 x i32>, <4 x i32>* %24, align 16, !tbaa !7
  %55 = uitofp <4 x i32> %54 to <4 x float>
  store <4 x float> %55, <4 x float>* %7, align 16, !tbaa !7
  %56 = load <4 x float>, <4 x float>* %7, align 16, !tbaa !7
  %57 = fptosi <4 x float> %56 to <4 x i32>
  store <4 x i32> %57, <4 x i32>* %16, align 16, !tbaa !7
  %58 = load <4 x i32>, <4 x i32>* %24, align 16, !tbaa !7
  %59 = load <4 x i32>, <4 x i32>* %16, align 16, !tbaa !7
  %60 = sub <4 x i32> %58, %59
  store <4 x i32> %60, <4 x i32>* %18, align 16, !tbaa !7
  %61 = load <4 x i32>, <4 x i32>* %18, align 16, !tbaa !7
  %62 = uitofp <4 x i32> %61 to <4 x float>
  store <4 x float> %62, <4 x float>* %8, align 16, !tbaa !7
  %63 = load <4 x float>, <4 x float>* %9, align 16, !tbaa !7
  %64 = fdiv <4 x float> <float 1.000000e+00, float 1.000000e+00, float 1.000000e+00, float 1.000000e+00>, %63
  store <4 x float> %64, <4 x float>* %11, align 16, !tbaa !7
  %65 = call float @_ZN7details16__impl_hex2floatEj(i32 -1262485504)
  %66 = insertelement <4 x float> undef, float %65, i32 0
  %67 = shufflevector <4 x float> %66, <4 x float> undef, <4 x i32> zeroinitializer
  store <4 x float> %67, <4 x float>* %30, align 16, !tbaa !7
  %68 = load <4 x float>, <4 x float>* %30, align 16, !tbaa !7
  %69 = load <4 x float>, <4 x float>* %11, align 16, !tbaa !7
  %70 = fmul <4 x float> %68, %69
  %71 = load <4 x float>, <4 x float>* %11, align 16, !tbaa !7
  %72 = fadd <4 x float> %71, %70
  store <4 x float> %72, <4 x float>* %11, align 16, !tbaa !7
  %73 = load <4 x float>, <4 x float>* %7, align 16, !tbaa !7
  %74 = load <4 x float>, <4 x float>* %11, align 16, !tbaa !7
  %75 = fmul <4 x float> %73, %74
  store <4 x float> %75, <4 x float>* %12, align 16, !tbaa !7
  %76 = load <4 x float>, <4 x float>* %12, align 16, !tbaa !7
  %77 = fptosi <4 x float> %76 to <4 x i32>
  store <4 x i32> %77, <4 x i32>* %20, align 16, !tbaa !7
  %78 = load <4 x i32>, <4 x i32>* %20, align 16, !tbaa !7
  %79 = uitofp <4 x i32> %78 to <4 x float>
  store <4 x float> %79, <4 x float>* %12, align 16, !tbaa !7
  %80 = load <4 x float>, <4 x float>* %7, align 16, !tbaa !7
  %81 = load <4 x float>, <4 x float>* %9, align 16, !tbaa !7
  %82 = load <4 x float>, <4 x float>* %12, align 16, !tbaa !7
  %83 = fmul <4 x float> %81, %82
  %84 = fsub <4 x float> %80, %83
  store <4 x float> %84, <4 x float>* %14, align 16, !tbaa !7
  %85 = load <4 x float>, <4 x float>* %8, align 16, !tbaa !7
  %86 = load <4 x float>, <4 x float>* %10, align 16, !tbaa !7
  %87 = load <4 x float>, <4 x float>* %12, align 16, !tbaa !7
  %88 = fmul <4 x float> %86, %87
  %89 = fsub <4 x float> %85, %88
  store <4 x float> %89, <4 x float>* %15, align 16, !tbaa !7
  %90 = load <4 x float>, <4 x float>* %14, align 16, !tbaa !7
  %91 = load <4 x float>, <4 x float>* %15, align 16, !tbaa !7
  %92 = fadd <4 x float> %90, %91
  store <4 x float> %92, <4 x float>* %15, align 16, !tbaa !7
  %93 = load <4 x float>, <4 x float>* %11, align 16, !tbaa !7
  %94 = load <4 x float>, <4 x float>* %15, align 16, !tbaa !7
  %95 = fmul <4 x float> %93, %94
  store <4 x float> %95, <4 x float>* %13, align 16, !tbaa !7
  %96 = load <4 x float>, <4 x float>* %13, align 16, !tbaa !7
  %97 = fptosi <4 x float> %96 to <4 x i32>
  store <4 x i32> %97, <4 x i32>* %21, align 16, !tbaa !7
  %98 = load <4 x i32>, <4 x i32>* %20, align 16, !tbaa !7
  %99 = load <4 x i32>, <4 x i32>* %21, align 16, !tbaa !7
  %100 = add <4 x i32> %98, %99
  store <4 x i32> %100, <4 x i32>* %22, align 16, !tbaa !7
  %101 = load <4 x i32>, <4 x i32>* %27, align 16, !tbaa !7
  %102 = load <4 x i32>, <4 x i32>* %28, align 16, !tbaa !7
  %103 = xor <4 x i32> %101, %102
  store <4 x i32> %103, <4 x i32>* %29, align 16, !tbaa !7
  %104 = load <4 x i32>, <4 x i32>* %24, align 16, !tbaa !7
  %105 = load <4 x i32>, <4 x i32>* %25, align 16, !tbaa !7
  %106 = load <4 x i32>, <4 x i32>* %22, align 16, !tbaa !7
  %107 = mul <4 x i32> %105, %106
  %108 = sub <4 x i32> %104, %107
  store <4 x i32> %108, <4 x i32>* %23, align 16, !tbaa !7
  %109 = load <4 x i32>, <4 x i32>* %23, align 16, !tbaa !7
  %110 = load <4 x i32>, <4 x i32>* %25, align 16, !tbaa !7
  %111 = icmp uge <4 x i32> %109, %110
  %112 = zext <4 x i1> %111 to <4 x i16>
  %113 = trunc <4 x i16> %112 to <4 x i1>
  %114 = select <4 x i1> %113, <4 x i32> <i32 -1, i32 -1, i32 -1, i32 -1>, <4 x i32> zeroinitializer
  store <4 x i32> %114, <4 x i32>* %26, align 16, !tbaa !7
  %115 = load <4 x i32>, <4 x i32>* %26, align 16, !tbaa !7
  %116 = and <4 x i32> %115, <i32 1, i32 1, i32 1, i32 1>
  %117 = load <4 x i32>, <4 x i32>* %22, align 16, !tbaa !7
  %118 = add <4 x i32> %117, %116
  store <4 x i32> %118, <4 x i32>* %22, align 16, !tbaa !7
  %119 = load <4 x i32>, <4 x i32>* %25, align 16, !tbaa !7
  %120 = load <4 x i32>, <4 x i32>* %26, align 16, !tbaa !7
  %121 = and <4 x i32> %119, %120
  %122 = load <4 x i32>, <4 x i32>* %23, align 16, !tbaa !7
  %123 = sub <4 x i32> %122, %121
  store <4 x i32> %123, <4 x i32>* %23, align 16, !tbaa !7
  %124 = load <4 x i32>, <4 x i32>* %27, align 16, !tbaa !7
  %125 = load <4 x i32>, <4 x i32>* %23, align 16, !tbaa !7
  %126 = add <4 x i32> %124, %125
  %127 = load <4 x i32>, <4 x i32>* %27, align 16, !tbaa !7
  %128 = xor <4 x i32> %126, %127
  call void @llvm.genx.vstore.v4i32.p0v4i32(<4 x i32> %128, <4 x i32>* %2)
  %129 = load <4 x i32>, <4 x i32>* %29, align 16, !tbaa !7
  %130 = load <4 x i32>, <4 x i32>* %22, align 16, !tbaa !7
  %131 = add <4 x i32> %129, %130
  %132 = load <4 x i32>, <4 x i32>* %29, align 16, !tbaa !7
  %133 = xor <4 x i32> %131, %132
  store <4 x i32> %133, <4 x i32>* %22, align 16, !tbaa !7
  %134 = load <4 x i32>, <4 x i32>* %22, align 16, !tbaa !7
  ret <4 x i32> %134
}

; Function Attrs: noinline nounwind
define dso_local <8 x i32> @_Z24__cm_intrinsic_impl_sdivu2CMvb8_iS_(<8 x i32>, <8 x i32>) #17 {
  %3 = alloca <8 x i32>, align 32
  %4 = alloca <8 x i32>, align 32
  %5 = alloca <8 x i32>, align 32
  %6 = alloca <8 x i32>, align 32
  store <8 x i32> %0, <8 x i32>* %3, align 32, !tbaa !7
  store <8 x i32> %1, <8 x i32>* %4, align 32, !tbaa !7
  %7 = load <8 x i32>, <8 x i32>* %3, align 32, !tbaa !7
  %8 = load <8 x i32>, <8 x i32>* %4, align 32, !tbaa !7
  %9 = call <8 x i32> @_ZN7details13__impl_divremILi8EEEu2CMvbT__iS1_S1_u2CMvrT__j(<8 x i32> %7, <8 x i32> %8, <8 x i32>* %5)
  store <8 x i32> %9, <8 x i32>* %6, align 32, !tbaa !7
  %10 = load <8 x i32>, <8 x i32>* %6, align 32, !tbaa !7
  ret <8 x i32> %10
}

; Function Attrs: alwaysinline inlinehint nounwind
define internal <8 x i32> @_ZN7details13__impl_divremILi8EEEu2CMvbT__iS1_S1_u2CMvrT__j(<8 x i32>, <8 x i32>, <8 x i32>*) #10 comdat {
  %4 = alloca <8 x i32>, align 32
  %5 = alloca <8 x i32>, align 32
  %6 = alloca <8 x i32>*, align 32
  %7 = alloca <8 x float>, align 32
  %8 = alloca <8 x float>, align 32
  %9 = alloca <8 x float>, align 32
  %10 = alloca <8 x float>, align 32
  %11 = alloca <8 x float>, align 32
  %12 = alloca <8 x float>, align 32
  %13 = alloca <8 x float>, align 32
  %14 = alloca <8 x float>, align 32
  %15 = alloca <8 x float>, align 32
  %16 = alloca <8 x i32>, align 32
  %17 = alloca <8 x i32>, align 32
  %18 = alloca <8 x i32>, align 32
  %19 = alloca <8 x i32>, align 32
  %20 = alloca <8 x i32>, align 32
  %21 = alloca <8 x i32>, align 32
  %22 = alloca <8 x i32>, align 32
  %23 = alloca <8 x i32>, align 32
  %24 = alloca <8 x i32>, align 32
  %25 = alloca <8 x i32>, align 32
  %26 = alloca <8 x i32>, align 32
  %27 = alloca <8 x i32>, align 32
  %28 = alloca <8 x i32>, align 32
  %29 = alloca <8 x i32>, align 32
  %30 = alloca <8 x float>, align 32
  store <8 x i32> %0, <8 x i32>* %4, align 32, !tbaa !7
  store <8 x i32> %1, <8 x i32>* %5, align 32, !tbaa !7
  store <8 x i32>* %2, <8 x i32>** %6, align 32, !tbaa !7
  %31 = load <8 x i32>, <8 x i32>* %4, align 32, !tbaa !7
  %32 = ashr <8 x i32> %31, <i32 31, i32 31, i32 31, i32 31, i32 31, i32 31, i32 31, i32 31>
  store <8 x i32> %32, <8 x i32>* %27, align 32, !tbaa !7
  %33 = load <8 x i32>, <8 x i32>* %5, align 32, !tbaa !7
  %34 = ashr <8 x i32> %33, <i32 31, i32 31, i32 31, i32 31, i32 31, i32 31, i32 31, i32 31>
  store <8 x i32> %34, <8 x i32>* %28, align 32, !tbaa !7
  %35 = load <8 x i32>, <8 x i32>* %4, align 32, !tbaa !7
  %36 = load <8 x i32>, <8 x i32>* %27, align 32, !tbaa !7
  %37 = add <8 x i32> %35, %36
  %38 = load <8 x i32>, <8 x i32>* %27, align 32, !tbaa !7
  %39 = xor <8 x i32> %37, %38
  store <8 x i32> %39, <8 x i32>* %24, align 32, !tbaa !7
  %40 = load <8 x i32>, <8 x i32>* %5, align 32, !tbaa !7
  %41 = load <8 x i32>, <8 x i32>* %28, align 32, !tbaa !7
  %42 = add <8 x i32> %40, %41
  %43 = load <8 x i32>, <8 x i32>* %28, align 32, !tbaa !7
  %44 = xor <8 x i32> %42, %43
  store <8 x i32> %44, <8 x i32>* %25, align 32, !tbaa !7
  %45 = load <8 x i32>, <8 x i32>* %25, align 32, !tbaa !7
  %46 = uitofp <8 x i32> %45 to <8 x float>
  store <8 x float> %46, <8 x float>* %9, align 32, !tbaa !7
  %47 = load <8 x float>, <8 x float>* %9, align 32, !tbaa !7
  %48 = fptosi <8 x float> %47 to <8 x i32>
  store <8 x i32> %48, <8 x i32>* %17, align 32, !tbaa !7
  %49 = load <8 x i32>, <8 x i32>* %25, align 32, !tbaa !7
  %50 = load <8 x i32>, <8 x i32>* %17, align 32, !tbaa !7
  %51 = sub <8 x i32> %49, %50
  store <8 x i32> %51, <8 x i32>* %19, align 32, !tbaa !7
  %52 = load <8 x i32>, <8 x i32>* %19, align 32, !tbaa !7
  %53 = uitofp <8 x i32> %52 to <8 x float>
  store <8 x float> %53, <8 x float>* %10, align 32, !tbaa !7
  %54 = load <8 x i32>, <8 x i32>* %24, align 32, !tbaa !7
  %55 = uitofp <8 x i32> %54 to <8 x float>
  store <8 x float> %55, <8 x float>* %7, align 32, !tbaa !7
  %56 = load <8 x float>, <8 x float>* %7, align 32, !tbaa !7
  %57 = fptosi <8 x float> %56 to <8 x i32>
  store <8 x i32> %57, <8 x i32>* %16, align 32, !tbaa !7
  %58 = load <8 x i32>, <8 x i32>* %24, align 32, !tbaa !7
  %59 = load <8 x i32>, <8 x i32>* %16, align 32, !tbaa !7
  %60 = sub <8 x i32> %58, %59
  store <8 x i32> %60, <8 x i32>* %18, align 32, !tbaa !7
  %61 = load <8 x i32>, <8 x i32>* %18, align 32, !tbaa !7
  %62 = uitofp <8 x i32> %61 to <8 x float>
  store <8 x float> %62, <8 x float>* %8, align 32, !tbaa !7
  %63 = load <8 x float>, <8 x float>* %9, align 32, !tbaa !7
  %64 = fdiv <8 x float> <float 1.000000e+00, float 1.000000e+00, float 1.000000e+00, float 1.000000e+00, float 1.000000e+00, float 1.000000e+00, float 1.000000e+00, float 1.000000e+00>, %63
  store <8 x float> %64, <8 x float>* %11, align 32, !tbaa !7
  %65 = call float @_ZN7details16__impl_hex2floatEj(i32 -1262485504)
  %66 = insertelement <8 x float> undef, float %65, i32 0
  %67 = shufflevector <8 x float> %66, <8 x float> undef, <8 x i32> zeroinitializer
  store <8 x float> %67, <8 x float>* %30, align 32, !tbaa !7
  %68 = load <8 x float>, <8 x float>* %30, align 32, !tbaa !7
  %69 = load <8 x float>, <8 x float>* %11, align 32, !tbaa !7
  %70 = fmul <8 x float> %68, %69
  %71 = load <8 x float>, <8 x float>* %11, align 32, !tbaa !7
  %72 = fadd <8 x float> %71, %70
  store <8 x float> %72, <8 x float>* %11, align 32, !tbaa !7
  %73 = load <8 x float>, <8 x float>* %7, align 32, !tbaa !7
  %74 = load <8 x float>, <8 x float>* %11, align 32, !tbaa !7
  %75 = fmul <8 x float> %73, %74
  store <8 x float> %75, <8 x float>* %12, align 32, !tbaa !7
  %76 = load <8 x float>, <8 x float>* %12, align 32, !tbaa !7
  %77 = fptosi <8 x float> %76 to <8 x i32>
  store <8 x i32> %77, <8 x i32>* %20, align 32, !tbaa !7
  %78 = load <8 x i32>, <8 x i32>* %20, align 32, !tbaa !7
  %79 = uitofp <8 x i32> %78 to <8 x float>
  store <8 x float> %79, <8 x float>* %12, align 32, !tbaa !7
  %80 = load <8 x float>, <8 x float>* %7, align 32, !tbaa !7
  %81 = load <8 x float>, <8 x float>* %9, align 32, !tbaa !7
  %82 = load <8 x float>, <8 x float>* %12, align 32, !tbaa !7
  %83 = fmul <8 x float> %81, %82
  %84 = fsub <8 x float> %80, %83
  store <8 x float> %84, <8 x float>* %14, align 32, !tbaa !7
  %85 = load <8 x float>, <8 x float>* %8, align 32, !tbaa !7
  %86 = load <8 x float>, <8 x float>* %10, align 32, !tbaa !7
  %87 = load <8 x float>, <8 x float>* %12, align 32, !tbaa !7
  %88 = fmul <8 x float> %86, %87
  %89 = fsub <8 x float> %85, %88
  store <8 x float> %89, <8 x float>* %15, align 32, !tbaa !7
  %90 = load <8 x float>, <8 x float>* %14, align 32, !tbaa !7
  %91 = load <8 x float>, <8 x float>* %15, align 32, !tbaa !7
  %92 = fadd <8 x float> %90, %91
  store <8 x float> %92, <8 x float>* %15, align 32, !tbaa !7
  %93 = load <8 x float>, <8 x float>* %11, align 32, !tbaa !7
  %94 = load <8 x float>, <8 x float>* %15, align 32, !tbaa !7
  %95 = fmul <8 x float> %93, %94
  store <8 x float> %95, <8 x float>* %13, align 32, !tbaa !7
  %96 = load <8 x float>, <8 x float>* %13, align 32, !tbaa !7
  %97 = fptosi <8 x float> %96 to <8 x i32>
  store <8 x i32> %97, <8 x i32>* %21, align 32, !tbaa !7
  %98 = load <8 x i32>, <8 x i32>* %20, align 32, !tbaa !7
  %99 = load <8 x i32>, <8 x i32>* %21, align 32, !tbaa !7
  %100 = add <8 x i32> %98, %99
  store <8 x i32> %100, <8 x i32>* %22, align 32, !tbaa !7
  %101 = load <8 x i32>, <8 x i32>* %27, align 32, !tbaa !7
  %102 = load <8 x i32>, <8 x i32>* %28, align 32, !tbaa !7
  %103 = xor <8 x i32> %101, %102
  store <8 x i32> %103, <8 x i32>* %29, align 32, !tbaa !7
  %104 = load <8 x i32>, <8 x i32>* %24, align 32, !tbaa !7
  %105 = load <8 x i32>, <8 x i32>* %25, align 32, !tbaa !7
  %106 = load <8 x i32>, <8 x i32>* %22, align 32, !tbaa !7
  %107 = mul <8 x i32> %105, %106
  %108 = sub <8 x i32> %104, %107
  store <8 x i32> %108, <8 x i32>* %23, align 32, !tbaa !7
  %109 = load <8 x i32>, <8 x i32>* %23, align 32, !tbaa !7
  %110 = load <8 x i32>, <8 x i32>* %25, align 32, !tbaa !7
  %111 = icmp uge <8 x i32> %109, %110
  %112 = zext <8 x i1> %111 to <8 x i16>
  %113 = trunc <8 x i16> %112 to <8 x i1>
  %114 = select <8 x i1> %113, <8 x i32> <i32 -1, i32 -1, i32 -1, i32 -1, i32 -1, i32 -1, i32 -1, i32 -1>, <8 x i32> zeroinitializer
  store <8 x i32> %114, <8 x i32>* %26, align 32, !tbaa !7
  %115 = load <8 x i32>, <8 x i32>* %26, align 32, !tbaa !7
  %116 = and <8 x i32> %115, <i32 1, i32 1, i32 1, i32 1, i32 1, i32 1, i32 1, i32 1>
  %117 = load <8 x i32>, <8 x i32>* %22, align 32, !tbaa !7
  %118 = add <8 x i32> %117, %116
  store <8 x i32> %118, <8 x i32>* %22, align 32, !tbaa !7
  %119 = load <8 x i32>, <8 x i32>* %25, align 32, !tbaa !7
  %120 = load <8 x i32>, <8 x i32>* %26, align 32, !tbaa !7
  %121 = and <8 x i32> %119, %120
  %122 = load <8 x i32>, <8 x i32>* %23, align 32, !tbaa !7
  %123 = sub <8 x i32> %122, %121
  store <8 x i32> %123, <8 x i32>* %23, align 32, !tbaa !7
  %124 = load <8 x i32>, <8 x i32>* %27, align 32, !tbaa !7
  %125 = load <8 x i32>, <8 x i32>* %23, align 32, !tbaa !7
  %126 = add <8 x i32> %124, %125
  %127 = load <8 x i32>, <8 x i32>* %27, align 32, !tbaa !7
  %128 = xor <8 x i32> %126, %127
  call void @llvm.genx.vstore.v8i32.p0v8i32(<8 x i32> %128, <8 x i32>* %2)
  %129 = load <8 x i32>, <8 x i32>* %29, align 32, !tbaa !7
  %130 = load <8 x i32>, <8 x i32>* %22, align 32, !tbaa !7
  %131 = add <8 x i32> %129, %130
  %132 = load <8 x i32>, <8 x i32>* %29, align 32, !tbaa !7
  %133 = xor <8 x i32> %131, %132
  store <8 x i32> %133, <8 x i32>* %22, align 32, !tbaa !7
  %134 = load <8 x i32>, <8 x i32>* %22, align 32, !tbaa !7
  ret <8 x i32> %134
}

; Function Attrs: noinline nounwind
define dso_local <16 x i32> @_Z24__cm_intrinsic_impl_sdivu2CMvb16_iS_(<16 x i32>, <16 x i32>) #18 {
  %3 = alloca <16 x i32>, align 64
  %4 = alloca <16 x i32>, align 64
  %5 = alloca <16 x i32>, align 64
  %6 = alloca <16 x i32>, align 64
  store <16 x i32> %0, <16 x i32>* %3, align 64, !tbaa !7
  store <16 x i32> %1, <16 x i32>* %4, align 64, !tbaa !7
  %7 = load <16 x i32>, <16 x i32>* %3, align 64, !tbaa !7
  %8 = load <16 x i32>, <16 x i32>* %4, align 64, !tbaa !7
  %9 = call <16 x i32> @_ZN7details13__impl_divremILi16EEEu2CMvbT__iS1_S1_u2CMvrT__j(<16 x i32> %7, <16 x i32> %8, <16 x i32>* %5)
  store <16 x i32> %9, <16 x i32>* %6, align 64, !tbaa !7
  %10 = load <16 x i32>, <16 x i32>* %6, align 64, !tbaa !7
  ret <16 x i32> %10
}

; Function Attrs: alwaysinline inlinehint nounwind
define internal <16 x i32> @_ZN7details13__impl_divremILi16EEEu2CMvbT__iS1_S1_u2CMvrT__j(<16 x i32>, <16 x i32>, <16 x i32>*) #12 comdat {
  %4 = alloca <16 x i32>, align 64
  %5 = alloca <16 x i32>, align 64
  %6 = alloca <16 x i32>*, align 64
  %7 = alloca <16 x float>, align 64
  %8 = alloca <16 x float>, align 64
  %9 = alloca <16 x float>, align 64
  %10 = alloca <16 x float>, align 64
  %11 = alloca <16 x float>, align 64
  %12 = alloca <16 x float>, align 64
  %13 = alloca <16 x float>, align 64
  %14 = alloca <16 x float>, align 64
  %15 = alloca <16 x float>, align 64
  %16 = alloca <16 x i32>, align 64
  %17 = alloca <16 x i32>, align 64
  %18 = alloca <16 x i32>, align 64
  %19 = alloca <16 x i32>, align 64
  %20 = alloca <16 x i32>, align 64
  %21 = alloca <16 x i32>, align 64
  %22 = alloca <16 x i32>, align 64
  %23 = alloca <16 x i32>, align 64
  %24 = alloca <16 x i32>, align 64
  %25 = alloca <16 x i32>, align 64
  %26 = alloca <16 x i32>, align 64
  %27 = alloca <16 x i32>, align 64
  %28 = alloca <16 x i32>, align 64
  %29 = alloca <16 x i32>, align 64
  %30 = alloca <16 x float>, align 64
  store <16 x i32> %0, <16 x i32>* %4, align 64, !tbaa !7
  store <16 x i32> %1, <16 x i32>* %5, align 64, !tbaa !7
  store <16 x i32>* %2, <16 x i32>** %6, align 64, !tbaa !7
  %31 = load <16 x i32>, <16 x i32>* %4, align 64, !tbaa !7
  %32 = ashr <16 x i32> %31, <i32 31, i32 31, i32 31, i32 31, i32 31, i32 31, i32 31, i32 31, i32 31, i32 31, i32 31, i32 31, i32 31, i32 31, i32 31, i32 31>
  store <16 x i32> %32, <16 x i32>* %27, align 64, !tbaa !7
  %33 = load <16 x i32>, <16 x i32>* %5, align 64, !tbaa !7
  %34 = ashr <16 x i32> %33, <i32 31, i32 31, i32 31, i32 31, i32 31, i32 31, i32 31, i32 31, i32 31, i32 31, i32 31, i32 31, i32 31, i32 31, i32 31, i32 31>
  store <16 x i32> %34, <16 x i32>* %28, align 64, !tbaa !7
  %35 = load <16 x i32>, <16 x i32>* %4, align 64, !tbaa !7
  %36 = load <16 x i32>, <16 x i32>* %27, align 64, !tbaa !7
  %37 = add <16 x i32> %35, %36
  %38 = load <16 x i32>, <16 x i32>* %27, align 64, !tbaa !7
  %39 = xor <16 x i32> %37, %38
  store <16 x i32> %39, <16 x i32>* %24, align 64, !tbaa !7
  %40 = load <16 x i32>, <16 x i32>* %5, align 64, !tbaa !7
  %41 = load <16 x i32>, <16 x i32>* %28, align 64, !tbaa !7
  %42 = add <16 x i32> %40, %41
  %43 = load <16 x i32>, <16 x i32>* %28, align 64, !tbaa !7
  %44 = xor <16 x i32> %42, %43
  store <16 x i32> %44, <16 x i32>* %25, align 64, !tbaa !7
  %45 = load <16 x i32>, <16 x i32>* %25, align 64, !tbaa !7
  %46 = uitofp <16 x i32> %45 to <16 x float>
  store <16 x float> %46, <16 x float>* %9, align 64, !tbaa !7
  %47 = load <16 x float>, <16 x float>* %9, align 64, !tbaa !7
  %48 = fptosi <16 x float> %47 to <16 x i32>
  store <16 x i32> %48, <16 x i32>* %17, align 64, !tbaa !7
  %49 = load <16 x i32>, <16 x i32>* %25, align 64, !tbaa !7
  %50 = load <16 x i32>, <16 x i32>* %17, align 64, !tbaa !7
  %51 = sub <16 x i32> %49, %50
  store <16 x i32> %51, <16 x i32>* %19, align 64, !tbaa !7
  %52 = load <16 x i32>, <16 x i32>* %19, align 64, !tbaa !7
  %53 = uitofp <16 x i32> %52 to <16 x float>
  store <16 x float> %53, <16 x float>* %10, align 64, !tbaa !7
  %54 = load <16 x i32>, <16 x i32>* %24, align 64, !tbaa !7
  %55 = uitofp <16 x i32> %54 to <16 x float>
  store <16 x float> %55, <16 x float>* %7, align 64, !tbaa !7
  %56 = load <16 x float>, <16 x float>* %7, align 64, !tbaa !7
  %57 = fptosi <16 x float> %56 to <16 x i32>
  store <16 x i32> %57, <16 x i32>* %16, align 64, !tbaa !7
  %58 = load <16 x i32>, <16 x i32>* %24, align 64, !tbaa !7
  %59 = load <16 x i32>, <16 x i32>* %16, align 64, !tbaa !7
  %60 = sub <16 x i32> %58, %59
  store <16 x i32> %60, <16 x i32>* %18, align 64, !tbaa !7
  %61 = load <16 x i32>, <16 x i32>* %18, align 64, !tbaa !7
  %62 = uitofp <16 x i32> %61 to <16 x float>
  store <16 x float> %62, <16 x float>* %8, align 64, !tbaa !7
  %63 = load <16 x float>, <16 x float>* %9, align 64, !tbaa !7
  %64 = fdiv <16 x float> <float 1.000000e+00, float 1.000000e+00, float 1.000000e+00, float 1.000000e+00, float 1.000000e+00, float 1.000000e+00, float 1.000000e+00, float 1.000000e+00, float 1.000000e+00, float 1.000000e+00, float 1.000000e+00, float 1.000000e+00, float 1.000000e+00, float 1.000000e+00, float 1.000000e+00, float 1.000000e+00>, %63
  store <16 x float> %64, <16 x float>* %11, align 64, !tbaa !7
  %65 = call float @_ZN7details16__impl_hex2floatEj(i32 -1262485504)
  %66 = insertelement <16 x float> undef, float %65, i32 0
  %67 = shufflevector <16 x float> %66, <16 x float> undef, <16 x i32> zeroinitializer
  store <16 x float> %67, <16 x float>* %30, align 64, !tbaa !7
  %68 = load <16 x float>, <16 x float>* %30, align 64, !tbaa !7
  %69 = load <16 x float>, <16 x float>* %11, align 64, !tbaa !7
  %70 = fmul <16 x float> %68, %69
  %71 = load <16 x float>, <16 x float>* %11, align 64, !tbaa !7
  %72 = fadd <16 x float> %71, %70
  store <16 x float> %72, <16 x float>* %11, align 64, !tbaa !7
  %73 = load <16 x float>, <16 x float>* %7, align 64, !tbaa !7
  %74 = load <16 x float>, <16 x float>* %11, align 64, !tbaa !7
  %75 = fmul <16 x float> %73, %74
  store <16 x float> %75, <16 x float>* %12, align 64, !tbaa !7
  %76 = load <16 x float>, <16 x float>* %12, align 64, !tbaa !7
  %77 = fptosi <16 x float> %76 to <16 x i32>
  store <16 x i32> %77, <16 x i32>* %20, align 64, !tbaa !7
  %78 = load <16 x i32>, <16 x i32>* %20, align 64, !tbaa !7
  %79 = uitofp <16 x i32> %78 to <16 x float>
  store <16 x float> %79, <16 x float>* %12, align 64, !tbaa !7
  %80 = load <16 x float>, <16 x float>* %7, align 64, !tbaa !7
  %81 = load <16 x float>, <16 x float>* %9, align 64, !tbaa !7
  %82 = load <16 x float>, <16 x float>* %12, align 64, !tbaa !7
  %83 = fmul <16 x float> %81, %82
  %84 = fsub <16 x float> %80, %83
  store <16 x float> %84, <16 x float>* %14, align 64, !tbaa !7
  %85 = load <16 x float>, <16 x float>* %8, align 64, !tbaa !7
  %86 = load <16 x float>, <16 x float>* %10, align 64, !tbaa !7
  %87 = load <16 x float>, <16 x float>* %12, align 64, !tbaa !7
  %88 = fmul <16 x float> %86, %87
  %89 = fsub <16 x float> %85, %88
  store <16 x float> %89, <16 x float>* %15, align 64, !tbaa !7
  %90 = load <16 x float>, <16 x float>* %14, align 64, !tbaa !7
  %91 = load <16 x float>, <16 x float>* %15, align 64, !tbaa !7
  %92 = fadd <16 x float> %90, %91
  store <16 x float> %92, <16 x float>* %15, align 64, !tbaa !7
  %93 = load <16 x float>, <16 x float>* %11, align 64, !tbaa !7
  %94 = load <16 x float>, <16 x float>* %15, align 64, !tbaa !7
  %95 = fmul <16 x float> %93, %94
  store <16 x float> %95, <16 x float>* %13, align 64, !tbaa !7
  %96 = load <16 x float>, <16 x float>* %13, align 64, !tbaa !7
  %97 = fptosi <16 x float> %96 to <16 x i32>
  store <16 x i32> %97, <16 x i32>* %21, align 64, !tbaa !7
  %98 = load <16 x i32>, <16 x i32>* %20, align 64, !tbaa !7
  %99 = load <16 x i32>, <16 x i32>* %21, align 64, !tbaa !7
  %100 = add <16 x i32> %98, %99
  store <16 x i32> %100, <16 x i32>* %22, align 64, !tbaa !7
  %101 = load <16 x i32>, <16 x i32>* %27, align 64, !tbaa !7
  %102 = load <16 x i32>, <16 x i32>* %28, align 64, !tbaa !7
  %103 = xor <16 x i32> %101, %102
  store <16 x i32> %103, <16 x i32>* %29, align 64, !tbaa !7
  %104 = load <16 x i32>, <16 x i32>* %24, align 64, !tbaa !7
  %105 = load <16 x i32>, <16 x i32>* %25, align 64, !tbaa !7
  %106 = load <16 x i32>, <16 x i32>* %22, align 64, !tbaa !7
  %107 = mul <16 x i32> %105, %106
  %108 = sub <16 x i32> %104, %107
  store <16 x i32> %108, <16 x i32>* %23, align 64, !tbaa !7
  %109 = load <16 x i32>, <16 x i32>* %23, align 64, !tbaa !7
  %110 = load <16 x i32>, <16 x i32>* %25, align 64, !tbaa !7
  %111 = icmp uge <16 x i32> %109, %110
  %112 = zext <16 x i1> %111 to <16 x i16>
  %113 = trunc <16 x i16> %112 to <16 x i1>
  %114 = select <16 x i1> %113, <16 x i32> <i32 -1, i32 -1, i32 -1, i32 -1, i32 -1, i32 -1, i32 -1, i32 -1, i32 -1, i32 -1, i32 -1, i32 -1, i32 -1, i32 -1, i32 -1, i32 -1>, <16 x i32> zeroinitializer
  store <16 x i32> %114, <16 x i32>* %26, align 64, !tbaa !7
  %115 = load <16 x i32>, <16 x i32>* %26, align 64, !tbaa !7
  %116 = and <16 x i32> %115, <i32 1, i32 1, i32 1, i32 1, i32 1, i32 1, i32 1, i32 1, i32 1, i32 1, i32 1, i32 1, i32 1, i32 1, i32 1, i32 1>
  %117 = load <16 x i32>, <16 x i32>* %22, align 64, !tbaa !7
  %118 = add <16 x i32> %117, %116
  store <16 x i32> %118, <16 x i32>* %22, align 64, !tbaa !7
  %119 = load <16 x i32>, <16 x i32>* %25, align 64, !tbaa !7
  %120 = load <16 x i32>, <16 x i32>* %26, align 64, !tbaa !7
  %121 = and <16 x i32> %119, %120
  %122 = load <16 x i32>, <16 x i32>* %23, align 64, !tbaa !7
  %123 = sub <16 x i32> %122, %121
  store <16 x i32> %123, <16 x i32>* %23, align 64, !tbaa !7
  %124 = load <16 x i32>, <16 x i32>* %27, align 64, !tbaa !7
  %125 = load <16 x i32>, <16 x i32>* %23, align 64, !tbaa !7
  %126 = add <16 x i32> %124, %125
  %127 = load <16 x i32>, <16 x i32>* %27, align 64, !tbaa !7
  %128 = xor <16 x i32> %126, %127
  call void @llvm.genx.vstore.v16i32.p0v16i32(<16 x i32> %128, <16 x i32>* %2)
  %129 = load <16 x i32>, <16 x i32>* %29, align 64, !tbaa !7
  %130 = load <16 x i32>, <16 x i32>* %22, align 64, !tbaa !7
  %131 = add <16 x i32> %129, %130
  %132 = load <16 x i32>, <16 x i32>* %29, align 64, !tbaa !7
  %133 = xor <16 x i32> %131, %132
  store <16 x i32> %133, <16 x i32>* %22, align 64, !tbaa !7
  %134 = load <16 x i32>, <16 x i32>* %22, align 64, !tbaa !7
  ret <16 x i32> %134
}

; Function Attrs: noinline nounwind
define internal <32 x i32> @_Z24__cm_intrinsic_impl_sdivu2CMvb32_iS_(<32 x i32>, <32 x i32>) #19 {
  %3 = alloca <32 x i32>, align 128
  %4 = alloca <32 x i32>, align 128
  %5 = alloca <32 x i32>, align 128
  %6 = alloca <32 x i32>, align 128
  store <32 x i32> %0, <32 x i32>* %3, align 128, !tbaa !7
  store <32 x i32> %1, <32 x i32>* %4, align 128, !tbaa !7
  %7 = load <32 x i32>, <32 x i32>* %3, align 128, !tbaa !7
  %8 = load <32 x i32>, <32 x i32>* %4, align 128, !tbaa !7
  %9 = call <32 x i32> @_ZN7details13__impl_divremILi32EEEu2CMvbT__iS1_S1_u2CMvrT__j(<32 x i32> %7, <32 x i32> %8, <32 x i32>* %5)
  store <32 x i32> %9, <32 x i32>* %6, align 128, !tbaa !7
  %10 = load <32 x i32>, <32 x i32>* %6, align 128, !tbaa !7
  ret <32 x i32> %10
}

; Function Attrs: alwaysinline inlinehint nounwind
define internal <32 x i32> @_ZN7details13__impl_divremILi32EEEu2CMvbT__iS1_S1_u2CMvrT__j(<32 x i32>, <32 x i32>, <32 x i32>*) #20 comdat {
  %4 = alloca <32 x i32>, align 128
  %5 = alloca <32 x i32>, align 128
  %6 = alloca <32 x i32>*, align 128
  %7 = alloca <32 x float>, align 128
  %8 = alloca <32 x float>, align 128
  %9 = alloca <32 x float>, align 128
  %10 = alloca <32 x float>, align 128
  %11 = alloca <32 x float>, align 128
  %12 = alloca <32 x float>, align 128
  %13 = alloca <32 x float>, align 128
  %14 = alloca <32 x float>, align 128
  %15 = alloca <32 x float>, align 128
  %16 = alloca <32 x i32>, align 128
  %17 = alloca <32 x i32>, align 128
  %18 = alloca <32 x i32>, align 128
  %19 = alloca <32 x i32>, align 128
  %20 = alloca <32 x i32>, align 128
  %21 = alloca <32 x i32>, align 128
  %22 = alloca <32 x i32>, align 128
  %23 = alloca <32 x i32>, align 128
  %24 = alloca <32 x i32>, align 128
  %25 = alloca <32 x i32>, align 128
  %26 = alloca <32 x i32>, align 128
  %27 = alloca <32 x i32>, align 128
  %28 = alloca <32 x i32>, align 128
  %29 = alloca <32 x i32>, align 128
  %30 = alloca <32 x float>, align 128
  store <32 x i32> %0, <32 x i32>* %4, align 128, !tbaa !7
  store <32 x i32> %1, <32 x i32>* %5, align 128, !tbaa !7
  store <32 x i32>* %2, <32 x i32>** %6, align 128, !tbaa !7
  %31 = load <32 x i32>, <32 x i32>* %4, align 128, !tbaa !7
  %32 = ashr <32 x i32> %31, <i32 31, i32 31, i32 31, i32 31, i32 31, i32 31, i32 31, i32 31, i32 31, i32 31, i32 31, i32 31, i32 31, i32 31, i32 31, i32 31, i32 31, i32 31, i32 31, i32 31, i32 31, i32 31, i32 31, i32 31, i32 31, i32 31, i32 31, i32 31, i32 31, i32 31, i32 31, i32 31>
  store <32 x i32> %32, <32 x i32>* %27, align 128, !tbaa !7
  %33 = load <32 x i32>, <32 x i32>* %5, align 128, !tbaa !7
  %34 = ashr <32 x i32> %33, <i32 31, i32 31, i32 31, i32 31, i32 31, i32 31, i32 31, i32 31, i32 31, i32 31, i32 31, i32 31, i32 31, i32 31, i32 31, i32 31, i32 31, i32 31, i32 31, i32 31, i32 31, i32 31, i32 31, i32 31, i32 31, i32 31, i32 31, i32 31, i32 31, i32 31, i32 31, i32 31>
  store <32 x i32> %34, <32 x i32>* %28, align 128, !tbaa !7
  %35 = load <32 x i32>, <32 x i32>* %4, align 128, !tbaa !7
  %36 = load <32 x i32>, <32 x i32>* %27, align 128, !tbaa !7
  %37 = add <32 x i32> %35, %36
  %38 = load <32 x i32>, <32 x i32>* %27, align 128, !tbaa !7
  %39 = xor <32 x i32> %37, %38
  store <32 x i32> %39, <32 x i32>* %24, align 128, !tbaa !7
  %40 = load <32 x i32>, <32 x i32>* %5, align 128, !tbaa !7
  %41 = load <32 x i32>, <32 x i32>* %28, align 128, !tbaa !7
  %42 = add <32 x i32> %40, %41
  %43 = load <32 x i32>, <32 x i32>* %28, align 128, !tbaa !7
  %44 = xor <32 x i32> %42, %43
  store <32 x i32> %44, <32 x i32>* %25, align 128, !tbaa !7
  %45 = load <32 x i32>, <32 x i32>* %25, align 128, !tbaa !7
  %46 = uitofp <32 x i32> %45 to <32 x float>
  store <32 x float> %46, <32 x float>* %9, align 128, !tbaa !7
  %47 = load <32 x float>, <32 x float>* %9, align 128, !tbaa !7
  %48 = fptosi <32 x float> %47 to <32 x i32>
  store <32 x i32> %48, <32 x i32>* %17, align 128, !tbaa !7
  %49 = load <32 x i32>, <32 x i32>* %25, align 128, !tbaa !7
  %50 = load <32 x i32>, <32 x i32>* %17, align 128, !tbaa !7
  %51 = sub <32 x i32> %49, %50
  store <32 x i32> %51, <32 x i32>* %19, align 128, !tbaa !7
  %52 = load <32 x i32>, <32 x i32>* %19, align 128, !tbaa !7
  %53 = uitofp <32 x i32> %52 to <32 x float>
  store <32 x float> %53, <32 x float>* %10, align 128, !tbaa !7
  %54 = load <32 x i32>, <32 x i32>* %24, align 128, !tbaa !7
  %55 = uitofp <32 x i32> %54 to <32 x float>
  store <32 x float> %55, <32 x float>* %7, align 128, !tbaa !7
  %56 = load <32 x float>, <32 x float>* %7, align 128, !tbaa !7
  %57 = fptosi <32 x float> %56 to <32 x i32>
  store <32 x i32> %57, <32 x i32>* %16, align 128, !tbaa !7
  %58 = load <32 x i32>, <32 x i32>* %24, align 128, !tbaa !7
  %59 = load <32 x i32>, <32 x i32>* %16, align 128, !tbaa !7
  %60 = sub <32 x i32> %58, %59
  store <32 x i32> %60, <32 x i32>* %18, align 128, !tbaa !7
  %61 = load <32 x i32>, <32 x i32>* %18, align 128, !tbaa !7
  %62 = uitofp <32 x i32> %61 to <32 x float>
  store <32 x float> %62, <32 x float>* %8, align 128, !tbaa !7
  %63 = load <32 x float>, <32 x float>* %9, align 128, !tbaa !7
  %64 = fdiv <32 x float> <float 1.000000e+00, float 1.000000e+00, float 1.000000e+00, float 1.000000e+00, float 1.000000e+00, float 1.000000e+00, float 1.000000e+00, float 1.000000e+00, float 1.000000e+00, float 1.000000e+00, float 1.000000e+00, float 1.000000e+00, float 1.000000e+00, float 1.000000e+00, float 1.000000e+00, float 1.000000e+00, float 1.000000e+00, float 1.000000e+00, float 1.000000e+00, float 1.000000e+00, float 1.000000e+00, float 1.000000e+00, float 1.000000e+00, float 1.000000e+00, float 1.000000e+00, float 1.000000e+00, float 1.000000e+00, float 1.000000e+00, float 1.000000e+00, float 1.000000e+00, float 1.000000e+00, float 1.000000e+00>, %63
  store <32 x float> %64, <32 x float>* %11, align 128, !tbaa !7
  %65 = call float @_ZN7details16__impl_hex2floatEj(i32 -1262485504)
  %66 = insertelement <32 x float> undef, float %65, i32 0
  %67 = shufflevector <32 x float> %66, <32 x float> undef, <32 x i32> zeroinitializer
  store <32 x float> %67, <32 x float>* %30, align 128, !tbaa !7
  %68 = load <32 x float>, <32 x float>* %30, align 128, !tbaa !7
  %69 = load <32 x float>, <32 x float>* %11, align 128, !tbaa !7
  %70 = fmul <32 x float> %68, %69
  %71 = load <32 x float>, <32 x float>* %11, align 128, !tbaa !7
  %72 = fadd <32 x float> %71, %70
  store <32 x float> %72, <32 x float>* %11, align 128, !tbaa !7
  %73 = load <32 x float>, <32 x float>* %7, align 128, !tbaa !7
  %74 = load <32 x float>, <32 x float>* %11, align 128, !tbaa !7
  %75 = fmul <32 x float> %73, %74
  store <32 x float> %75, <32 x float>* %12, align 128, !tbaa !7
  %76 = load <32 x float>, <32 x float>* %12, align 128, !tbaa !7
  %77 = fptosi <32 x float> %76 to <32 x i32>
  store <32 x i32> %77, <32 x i32>* %20, align 128, !tbaa !7
  %78 = load <32 x i32>, <32 x i32>* %20, align 128, !tbaa !7
  %79 = uitofp <32 x i32> %78 to <32 x float>
  store <32 x float> %79, <32 x float>* %12, align 128, !tbaa !7
  %80 = load <32 x float>, <32 x float>* %7, align 128, !tbaa !7
  %81 = load <32 x float>, <32 x float>* %9, align 128, !tbaa !7
  %82 = load <32 x float>, <32 x float>* %12, align 128, !tbaa !7
  %83 = fmul <32 x float> %81, %82
  %84 = fsub <32 x float> %80, %83
  store <32 x float> %84, <32 x float>* %14, align 128, !tbaa !7
  %85 = load <32 x float>, <32 x float>* %8, align 128, !tbaa !7
  %86 = load <32 x float>, <32 x float>* %10, align 128, !tbaa !7
  %87 = load <32 x float>, <32 x float>* %12, align 128, !tbaa !7
  %88 = fmul <32 x float> %86, %87
  %89 = fsub <32 x float> %85, %88
  store <32 x float> %89, <32 x float>* %15, align 128, !tbaa !7
  %90 = load <32 x float>, <32 x float>* %14, align 128, !tbaa !7
  %91 = load <32 x float>, <32 x float>* %15, align 128, !tbaa !7
  %92 = fadd <32 x float> %90, %91
  store <32 x float> %92, <32 x float>* %15, align 128, !tbaa !7
  %93 = load <32 x float>, <32 x float>* %11, align 128, !tbaa !7
  %94 = load <32 x float>, <32 x float>* %15, align 128, !tbaa !7
  %95 = fmul <32 x float> %93, %94
  store <32 x float> %95, <32 x float>* %13, align 128, !tbaa !7
  %96 = load <32 x float>, <32 x float>* %13, align 128, !tbaa !7
  %97 = fptosi <32 x float> %96 to <32 x i32>
  store <32 x i32> %97, <32 x i32>* %21, align 128, !tbaa !7
  %98 = load <32 x i32>, <32 x i32>* %20, align 128, !tbaa !7
  %99 = load <32 x i32>, <32 x i32>* %21, align 128, !tbaa !7
  %100 = add <32 x i32> %98, %99
  store <32 x i32> %100, <32 x i32>* %22, align 128, !tbaa !7
  %101 = load <32 x i32>, <32 x i32>* %27, align 128, !tbaa !7
  %102 = load <32 x i32>, <32 x i32>* %28, align 128, !tbaa !7
  %103 = xor <32 x i32> %101, %102
  store <32 x i32> %103, <32 x i32>* %29, align 128, !tbaa !7
  %104 = load <32 x i32>, <32 x i32>* %24, align 128, !tbaa !7
  %105 = load <32 x i32>, <32 x i32>* %25, align 128, !tbaa !7
  %106 = load <32 x i32>, <32 x i32>* %22, align 128, !tbaa !7
  %107 = mul <32 x i32> %105, %106
  %108 = sub <32 x i32> %104, %107
  store <32 x i32> %108, <32 x i32>* %23, align 128, !tbaa !7
  %109 = load <32 x i32>, <32 x i32>* %23, align 128, !tbaa !7
  %110 = load <32 x i32>, <32 x i32>* %25, align 128, !tbaa !7
  %111 = icmp uge <32 x i32> %109, %110
  %112 = zext <32 x i1> %111 to <32 x i16>
  %113 = trunc <32 x i16> %112 to <32 x i1>
  %114 = select <32 x i1> %113, <32 x i32> <i32 -1, i32 -1, i32 -1, i32 -1, i32 -1, i32 -1, i32 -1, i32 -1, i32 -1, i32 -1, i32 -1, i32 -1, i32 -1, i32 -1, i32 -1, i32 -1, i32 -1, i32 -1, i32 -1, i32 -1, i32 -1, i32 -1, i32 -1, i32 -1, i32 -1, i32 -1, i32 -1, i32 -1, i32 -1, i32 -1, i32 -1, i32 -1>, <32 x i32> zeroinitializer
  store <32 x i32> %114, <32 x i32>* %26, align 128, !tbaa !7
  %115 = load <32 x i32>, <32 x i32>* %26, align 128, !tbaa !7
  %116 = and <32 x i32> %115, <i32 1, i32 1, i32 1, i32 1, i32 1, i32 1, i32 1, i32 1, i32 1, i32 1, i32 1, i32 1, i32 1, i32 1, i32 1, i32 1, i32 1, i32 1, i32 1, i32 1, i32 1, i32 1, i32 1, i32 1, i32 1, i32 1, i32 1, i32 1, i32 1, i32 1, i32 1, i32 1>
  %117 = load <32 x i32>, <32 x i32>* %22, align 128, !tbaa !7
  %118 = add <32 x i32> %117, %116
  store <32 x i32> %118, <32 x i32>* %22, align 128, !tbaa !7
  %119 = load <32 x i32>, <32 x i32>* %25, align 128, !tbaa !7
  %120 = load <32 x i32>, <32 x i32>* %26, align 128, !tbaa !7
  %121 = and <32 x i32> %119, %120
  %122 = load <32 x i32>, <32 x i32>* %23, align 128, !tbaa !7
  %123 = sub <32 x i32> %122, %121
  store <32 x i32> %123, <32 x i32>* %23, align 128, !tbaa !7
  %124 = load <32 x i32>, <32 x i32>* %27, align 128, !tbaa !7
  %125 = load <32 x i32>, <32 x i32>* %23, align 128, !tbaa !7
  %126 = add <32 x i32> %124, %125
  %127 = load <32 x i32>, <32 x i32>* %27, align 128, !tbaa !7
  %128 = xor <32 x i32> %126, %127
  call void @llvm.genx.vstore.v32i32.p0v32i32(<32 x i32> %128, <32 x i32>* %2)
  %129 = load <32 x i32>, <32 x i32>* %29, align 128, !tbaa !7
  %130 = load <32 x i32>, <32 x i32>* %22, align 128, !tbaa !7
  %131 = add <32 x i32> %129, %130
  %132 = load <32 x i32>, <32 x i32>* %29, align 128, !tbaa !7
  %133 = xor <32 x i32> %131, %132
  store <32 x i32> %133, <32 x i32>* %22, align 128, !tbaa !7
  %134 = load <32 x i32>, <32 x i32>* %22, align 128, !tbaa !7
  ret <32 x i32> %134
}

; Function Attrs: noinline nounwind
define internal i32 @_Z24__cm_intrinsic_impl_sremii(i32, i32) #14 {
  %3 = alloca i32, align 4
  %4 = alloca i32, align 4
  %5 = alloca <1 x i32>, align 4
  %6 = alloca <1 x i32>, align 4
  %7 = alloca <1 x i32>, align 4
  store i32 %0, i32* %3, align 4, !tbaa !13
  store i32 %1, i32* %4, align 4, !tbaa !13
  %8 = load i32, i32* %3, align 4, !tbaa !13
  %9 = insertelement <1 x i32> undef, i32 %8, i32 0
  %10 = shufflevector <1 x i32> %9, <1 x i32> undef, <1 x i32> zeroinitializer
  store <1 x i32> %10, <1 x i32>* %5, align 4, !tbaa !7
  %11 = load i32, i32* %4, align 4, !tbaa !13
  %12 = insertelement <1 x i32> undef, i32 %11, i32 0
  %13 = shufflevector <1 x i32> %12, <1 x i32> undef, <1 x i32> zeroinitializer
  store <1 x i32> %13, <1 x i32>* %6, align 4, !tbaa !7
  %14 = load <1 x i32>, <1 x i32>* %5, align 4, !tbaa !7
  %15 = load <1 x i32>, <1 x i32>* %6, align 4, !tbaa !7
  %16 = call <1 x i32> @_ZN7details13__impl_divremILi1EEEu2CMvbT__iS1_S1_u2CMvrT__j(<1 x i32> %14, <1 x i32> %15, <1 x i32>* %7)
  %17 = load <1 x i32>, <1 x i32>* %7, align 4, !tbaa !7
  %18 = call <1 x i32> @llvm.genx.rdregioni.v1i32.v1i32.i16(<1 x i32> %17, i32 0, i32 1, i32 0, i16 0, i32 undef)
  %19 = extractelement <1 x i32> %18, i32 0
  ret i32 %19
}

; Function Attrs: noinline nounwind
define internal <1 x i32> @_Z24__cm_intrinsic_impl_sremu2CMvb1_iS_(<1 x i32>, <1 x i32>) #14 {
  %3 = alloca <1 x i32>, align 4
  %4 = alloca <1 x i32>, align 4
  %5 = alloca <1 x i32>, align 4
  store <1 x i32> %0, <1 x i32>* %3, align 4, !tbaa !7
  store <1 x i32> %1, <1 x i32>* %4, align 4, !tbaa !7
  %6 = load <1 x i32>, <1 x i32>* %3, align 4, !tbaa !7
  %7 = load <1 x i32>, <1 x i32>* %4, align 4, !tbaa !7
  %8 = call <1 x i32> @_ZN7details13__impl_divremILi1EEEu2CMvbT__iS1_S1_u2CMvrT__j(<1 x i32> %6, <1 x i32> %7, <1 x i32>* %5)
  %9 = load <1 x i32>, <1 x i32>* %5, align 4, !tbaa !7
  ret <1 x i32> %9
}

; Function Attrs: noinline nounwind
define internal <2 x i32> @_Z24__cm_intrinsic_impl_sremu2CMvb2_iS_(<2 x i32>, <2 x i32>) #15 {
  %3 = alloca <2 x i32>, align 8
  %4 = alloca <2 x i32>, align 8
  %5 = alloca <2 x i32>, align 8
  store <2 x i32> %0, <2 x i32>* %3, align 8, !tbaa !7
  store <2 x i32> %1, <2 x i32>* %4, align 8, !tbaa !7
  %6 = load <2 x i32>, <2 x i32>* %3, align 8, !tbaa !7
  %7 = load <2 x i32>, <2 x i32>* %4, align 8, !tbaa !7
  %8 = call <2 x i32> @_ZN7details13__impl_divremILi2EEEu2CMvbT__iS1_S1_u2CMvrT__j(<2 x i32> %6, <2 x i32> %7, <2 x i32>* %5)
  %9 = load <2 x i32>, <2 x i32>* %5, align 8, !tbaa !7
  ret <2 x i32> %9
}

; Function Attrs: noinline nounwind
define internal <4 x i32> @_Z24__cm_intrinsic_impl_sremu2CMvb4_iS_(<4 x i32>, <4 x i32>) #16 {
  %3 = alloca <4 x i32>, align 16
  %4 = alloca <4 x i32>, align 16
  %5 = alloca <4 x i32>, align 16
  store <4 x i32> %0, <4 x i32>* %3, align 16, !tbaa !7
  store <4 x i32> %1, <4 x i32>* %4, align 16, !tbaa !7
  %6 = load <4 x i32>, <4 x i32>* %3, align 16, !tbaa !7
  %7 = load <4 x i32>, <4 x i32>* %4, align 16, !tbaa !7
  %8 = call <4 x i32> @_ZN7details13__impl_divremILi4EEEu2CMvbT__iS1_S1_u2CMvrT__j(<4 x i32> %6, <4 x i32> %7, <4 x i32>* %5)
  %9 = load <4 x i32>, <4 x i32>* %5, align 16, !tbaa !7
  ret <4 x i32> %9
}

; Function Attrs: noinline nounwind
define internal <8 x i32> @_Z24__cm_intrinsic_impl_sremu2CMvb8_iS_(<8 x i32>, <8 x i32>) #17 {
  %3 = alloca <8 x i32>, align 32
  %4 = alloca <8 x i32>, align 32
  %5 = alloca <8 x i32>, align 32
  store <8 x i32> %0, <8 x i32>* %3, align 32, !tbaa !7
  store <8 x i32> %1, <8 x i32>* %4, align 32, !tbaa !7
  %6 = load <8 x i32>, <8 x i32>* %3, align 32, !tbaa !7
  %7 = load <8 x i32>, <8 x i32>* %4, align 32, !tbaa !7
  %8 = call <8 x i32> @_ZN7details13__impl_divremILi8EEEu2CMvbT__iS1_S1_u2CMvrT__j(<8 x i32> %6, <8 x i32> %7, <8 x i32>* %5)
  %9 = load <8 x i32>, <8 x i32>* %5, align 32, !tbaa !7
  ret <8 x i32> %9
}

; Function Attrs: noinline nounwind
define internal <16 x i32> @_Z24__cm_intrinsic_impl_sremu2CMvb16_iS_(<16 x i32>, <16 x i32>) #18 {
  %3 = alloca <16 x i32>, align 64
  %4 = alloca <16 x i32>, align 64
  %5 = alloca <16 x i32>, align 64
  store <16 x i32> %0, <16 x i32>* %3, align 64, !tbaa !7
  store <16 x i32> %1, <16 x i32>* %4, align 64, !tbaa !7
  %6 = load <16 x i32>, <16 x i32>* %3, align 64, !tbaa !7
  %7 = load <16 x i32>, <16 x i32>* %4, align 64, !tbaa !7
  %8 = call <16 x i32> @_ZN7details13__impl_divremILi16EEEu2CMvbT__iS1_S1_u2CMvrT__j(<16 x i32> %6, <16 x i32> %7, <16 x i32>* %5)
  %9 = load <16 x i32>, <16 x i32>* %5, align 64, !tbaa !7
  ret <16 x i32> %9
}

; Function Attrs: noinline nounwind
define internal <32 x i32> @_Z24__cm_intrinsic_impl_sremu2CMvb32_iS_(<32 x i32>, <32 x i32>) #19 {
  %3 = alloca <32 x i32>, align 128
  %4 = alloca <32 x i32>, align 128
  %5 = alloca <32 x i32>, align 128
  store <32 x i32> %0, <32 x i32>* %3, align 128, !tbaa !7
  store <32 x i32> %1, <32 x i32>* %4, align 128, !tbaa !7
  %6 = load <32 x i32>, <32 x i32>* %3, align 128, !tbaa !7
  %7 = load <32 x i32>, <32 x i32>* %4, align 128, !tbaa !7
  %8 = call <32 x i32> @_ZN7details13__impl_divremILi32EEEu2CMvbT__iS1_S1_u2CMvrT__j(<32 x i32> %6, <32 x i32> %7, <32 x i32>* %5)
  %9 = load <32 x i32>, <32 x i32>* %5, align 128, !tbaa !7
  ret <32 x i32> %9
}

; Function Attrs: noinline nounwind
define internal zeroext i8 @_Z24__cm_intrinsic_impl_udivhh(i8 zeroext, i8 zeroext) #21 {
  %3 = alloca i8, align 1
  %4 = alloca i8, align 1
  %5 = alloca <1 x i8>, align 1
  %6 = alloca <1 x i8>, align 1
  %7 = alloca <1 x i8>, align 1
  %8 = alloca <1 x i8>, align 1
  store i8 %0, i8* %3, align 1, !tbaa !7
  store i8 %1, i8* %4, align 1, !tbaa !7
  %9 = load i8, i8* %3, align 1, !tbaa !7
  %10 = insertelement <1 x i8> undef, i8 %9, i32 0
  %11 = shufflevector <1 x i8> %10, <1 x i8> undef, <1 x i32> zeroinitializer
  store <1 x i8> %11, <1 x i8>* %5, align 1, !tbaa !7
  %12 = load i8, i8* %4, align 1, !tbaa !7
  %13 = insertelement <1 x i8> undef, i8 %12, i32 0
  %14 = shufflevector <1 x i8> %13, <1 x i8> undef, <1 x i32> zeroinitializer
  store <1 x i8> %14, <1 x i8>* %6, align 1, !tbaa !7
  %15 = load <1 x i8>, <1 x i8>* %5, align 1, !tbaa !7
  %16 = load <1 x i8>, <1 x i8>* %6, align 1, !tbaa !7
  %17 = call <1 x i8> @_ZN7details14__impl_udivremILi1EEEu2CMvbT__hS1_S1_u2CMvrT__h(<1 x i8> %15, <1 x i8> %16, <1 x i8>* %7)
  store <1 x i8> %17, <1 x i8>* %8, align 1, !tbaa !7
  %18 = load <1 x i8>, <1 x i8>* %8, align 1, !tbaa !7
  %19 = call <1 x i8> @llvm.genx.rdregioni.v1i8.v1i8.i16(<1 x i8> %18, i32 0, i32 1, i32 0, i16 0, i32 undef)
  %20 = extractelement <1 x i8> %19, i32 0
  ret i8 %20
}

; Function Attrs: alwaysinline inlinehint nounwind
define internal <1 x i8> @_ZN7details14__impl_udivremILi1EEEu2CMvbT__hS1_S1_u2CMvrT__h(<1 x i8>, <1 x i8>, <1 x i8>*) #1 comdat {
  %4 = alloca <1 x i8>, align 1
  %5 = alloca <1 x i8>, align 1
  %6 = alloca <1 x i8>*, align 1
  %7 = alloca <1 x i16>, align 2
  %8 = alloca <1 x i16>, align 2
  %9 = alloca <1 x i16>, align 2
  %10 = alloca <1 x i8>, align 1
  store <1 x i8> %0, <1 x i8>* %4, align 1, !tbaa !7
  store <1 x i8> %1, <1 x i8>* %5, align 1, !tbaa !7
  store <1 x i8>* %2, <1 x i8>** %6, align 1, !tbaa !7
  %11 = load <1 x i8>, <1 x i8>* %4, align 1, !tbaa !7
  %12 = zext <1 x i8> %11 to <1 x i16>
  store <1 x i16> %12, <1 x i16>* %7, align 2, !tbaa !7
  %13 = load <1 x i8>, <1 x i8>* %5, align 1, !tbaa !7
  %14 = zext <1 x i8> %13 to <1 x i16>
  store <1 x i16> %14, <1 x i16>* %8, align 2, !tbaa !7
  %15 = load <1 x i16>, <1 x i16>* %7, align 2, !tbaa !7
  %16 = load <1 x i16>, <1 x i16>* %8, align 2, !tbaa !7
  %17 = call <1 x i16> @_ZN7details14__impl_udivremILi1EEEu2CMvbT__tS1_S1_u2CMvrT__t(<1 x i16> %15, <1 x i16> %16, <1 x i16>* %9)
  %18 = trunc <1 x i16> %17 to <1 x i8>
  store <1 x i8> %18, <1 x i8>* %10, align 1, !tbaa !7
  %19 = load <1 x i16>, <1 x i16>* %9, align 2, !tbaa !7
  %20 = trunc <1 x i16> %19 to <1 x i8>
  store <1 x i8> %20, <1 x i8>* %2
  %21 = load <1 x i8>, <1 x i8>* %10, align 1, !tbaa !7
  ret <1 x i8> %21
}

; Function Attrs: noinline nounwind
define internal <1 x i8> @_Z24__cm_intrinsic_impl_udivu2CMvb1_hS_(<1 x i8>, <1 x i8>) #21 {
  %3 = alloca <1 x i8>, align 1
  %4 = alloca <1 x i8>, align 1
  %5 = alloca <1 x i8>, align 1
  %6 = alloca <1 x i8>, align 1
  store <1 x i8> %0, <1 x i8>* %3, align 1, !tbaa !7
  store <1 x i8> %1, <1 x i8>* %4, align 1, !tbaa !7
  %7 = load <1 x i8>, <1 x i8>* %3, align 1, !tbaa !7
  %8 = load <1 x i8>, <1 x i8>* %4, align 1, !tbaa !7
  %9 = call <1 x i8> @_ZN7details14__impl_udivremILi1EEEu2CMvbT__hS1_S1_u2CMvrT__h(<1 x i8> %7, <1 x i8> %8, <1 x i8>* %5)
  store <1 x i8> %9, <1 x i8>* %6, align 1, !tbaa !7
  %10 = load <1 x i8>, <1 x i8>* %6, align 1, !tbaa !7
  ret <1 x i8> %10
}

; Function Attrs: noinline nounwind
define internal <2 x i8> @_Z24__cm_intrinsic_impl_udivu2CMvb2_hS_(<2 x i8>, <2 x i8>) #22 {
  %3 = alloca <2 x i8>, align 2
  %4 = alloca <2 x i8>, align 2
  %5 = alloca <2 x i8>, align 2
  %6 = alloca <2 x i8>, align 2
  store <2 x i8> %0, <2 x i8>* %3, align 2, !tbaa !7
  store <2 x i8> %1, <2 x i8>* %4, align 2, !tbaa !7
  %7 = load <2 x i8>, <2 x i8>* %3, align 2, !tbaa !7
  %8 = load <2 x i8>, <2 x i8>* %4, align 2, !tbaa !7
  %9 = call <2 x i8> @_ZN7details14__impl_udivremILi2EEEu2CMvbT__hS1_S1_u2CMvrT__h(<2 x i8> %7, <2 x i8> %8, <2 x i8>* %5)
  store <2 x i8> %9, <2 x i8>* %6, align 2, !tbaa !7
  %10 = load <2 x i8>, <2 x i8>* %6, align 2, !tbaa !7
  ret <2 x i8> %10
}

; Function Attrs: alwaysinline inlinehint nounwind
define internal <2 x i8> @_ZN7details14__impl_udivremILi2EEEu2CMvbT__hS1_S1_u2CMvrT__h(<2 x i8>, <2 x i8>, <2 x i8>*) #4 comdat {
  %4 = alloca <2 x i8>, align 2
  %5 = alloca <2 x i8>, align 2
  %6 = alloca <2 x i8>*, align 2
  %7 = alloca <2 x i16>, align 4
  %8 = alloca <2 x i16>, align 4
  %9 = alloca <2 x i16>, align 4
  %10 = alloca <2 x i8>, align 2
  store <2 x i8> %0, <2 x i8>* %4, align 2, !tbaa !7
  store <2 x i8> %1, <2 x i8>* %5, align 2, !tbaa !7
  store <2 x i8>* %2, <2 x i8>** %6, align 2, !tbaa !7
  %11 = load <2 x i8>, <2 x i8>* %4, align 2, !tbaa !7
  %12 = zext <2 x i8> %11 to <2 x i16>
  store <2 x i16> %12, <2 x i16>* %7, align 4, !tbaa !7
  %13 = load <2 x i8>, <2 x i8>* %5, align 2, !tbaa !7
  %14 = zext <2 x i8> %13 to <2 x i16>
  store <2 x i16> %14, <2 x i16>* %8, align 4, !tbaa !7
  %15 = load <2 x i16>, <2 x i16>* %7, align 4, !tbaa !7
  %16 = load <2 x i16>, <2 x i16>* %8, align 4, !tbaa !7
  %17 = call <2 x i16> @_ZN7details14__impl_udivremILi2EEEu2CMvbT__tS1_S1_u2CMvrT__t(<2 x i16> %15, <2 x i16> %16, <2 x i16>* %9)
  %18 = trunc <2 x i16> %17 to <2 x i8>
  store <2 x i8> %18, <2 x i8>* %10, align 2, !tbaa !7
  %19 = load <2 x i16>, <2 x i16>* %9, align 4, !tbaa !7
  %20 = trunc <2 x i16> %19 to <2 x i8>
  call void @llvm.genx.vstore.v2i8.p0v2i8(<2 x i8> %20, <2 x i8>* %2)
  %21 = load <2 x i8>, <2 x i8>* %10, align 2, !tbaa !7
  ret <2 x i8> %21
}

; Function Attrs: noinline nounwind
define internal <4 x i8> @_Z24__cm_intrinsic_impl_udivu2CMvb4_hS_(<4 x i8>, <4 x i8>) #14 {
  %3 = alloca <4 x i8>, align 4
  %4 = alloca <4 x i8>, align 4
  %5 = alloca <4 x i8>, align 4
  %6 = alloca <4 x i8>, align 4
  store <4 x i8> %0, <4 x i8>* %3, align 4, !tbaa !7
  store <4 x i8> %1, <4 x i8>* %4, align 4, !tbaa !7
  %7 = load <4 x i8>, <4 x i8>* %3, align 4, !tbaa !7
  %8 = load <4 x i8>, <4 x i8>* %4, align 4, !tbaa !7
  %9 = call <4 x i8> @_ZN7details14__impl_udivremILi4EEEu2CMvbT__hS1_S1_u2CMvrT__h(<4 x i8> %7, <4 x i8> %8, <4 x i8>* %5)
  store <4 x i8> %9, <4 x i8>* %6, align 4, !tbaa !7
  %10 = load <4 x i8>, <4 x i8>* %6, align 4, !tbaa !7
  ret <4 x i8> %10
}

; Function Attrs: alwaysinline inlinehint nounwind
define internal <4 x i8> @_ZN7details14__impl_udivremILi4EEEu2CMvbT__hS1_S1_u2CMvrT__h(<4 x i8>, <4 x i8>, <4 x i8>*) #6 comdat {
  %4 = alloca <4 x i8>, align 4
  %5 = alloca <4 x i8>, align 4
  %6 = alloca <4 x i8>*, align 4
  %7 = alloca <4 x i16>, align 8
  %8 = alloca <4 x i16>, align 8
  %9 = alloca <4 x i16>, align 8
  %10 = alloca <4 x i8>, align 4
  store <4 x i8> %0, <4 x i8>* %4, align 4, !tbaa !7
  store <4 x i8> %1, <4 x i8>* %5, align 4, !tbaa !7
  store <4 x i8>* %2, <4 x i8>** %6, align 4, !tbaa !7
  %11 = load <4 x i8>, <4 x i8>* %4, align 4, !tbaa !7
  %12 = zext <4 x i8> %11 to <4 x i16>
  store <4 x i16> %12, <4 x i16>* %7, align 8, !tbaa !7
  %13 = load <4 x i8>, <4 x i8>* %5, align 4, !tbaa !7
  %14 = zext <4 x i8> %13 to <4 x i16>
  store <4 x i16> %14, <4 x i16>* %8, align 8, !tbaa !7
  %15 = load <4 x i16>, <4 x i16>* %7, align 8, !tbaa !7
  %16 = load <4 x i16>, <4 x i16>* %8, align 8, !tbaa !7
  %17 = call <4 x i16> @_ZN7details14__impl_udivremILi4EEEu2CMvbT__tS1_S1_u2CMvrT__t(<4 x i16> %15, <4 x i16> %16, <4 x i16>* %9)
  %18 = trunc <4 x i16> %17 to <4 x i8>
  store <4 x i8> %18, <4 x i8>* %10, align 4, !tbaa !7
  %19 = load <4 x i16>, <4 x i16>* %9, align 8, !tbaa !7
  %20 = trunc <4 x i16> %19 to <4 x i8>
  call void @llvm.genx.vstore.v4i8.p0v4i8(<4 x i8> %20, <4 x i8>* %2)
  %21 = load <4 x i8>, <4 x i8>* %10, align 4, !tbaa !7
  ret <4 x i8> %21
}

; Function Attrs: noinline nounwind
define dso_local <8 x i8> @_Z24__cm_intrinsic_impl_udivu2CMvb8_hS_(<8 x i8>, <8 x i8>) #15 {
  %3 = alloca <8 x i8>, align 8
  %4 = alloca <8 x i8>, align 8
  %5 = alloca <8 x i8>, align 8
  %6 = alloca <8 x i8>, align 8
  store <8 x i8> %0, <8 x i8>* %3, align 8, !tbaa !7
  store <8 x i8> %1, <8 x i8>* %4, align 8, !tbaa !7
  %7 = load <8 x i8>, <8 x i8>* %3, align 8, !tbaa !7
  %8 = load <8 x i8>, <8 x i8>* %4, align 8, !tbaa !7
  %9 = call <8 x i8> @_ZN7details14__impl_udivremILi8EEEu2CMvbT__hS1_S1_u2CMvrT__h(<8 x i8> %7, <8 x i8> %8, <8 x i8>* %5)
  store <8 x i8> %9, <8 x i8>* %6, align 8, !tbaa !7
  %10 = load <8 x i8>, <8 x i8>* %6, align 8, !tbaa !7
  ret <8 x i8> %10
}

; Function Attrs: alwaysinline inlinehint nounwind
define internal <8 x i8> @_ZN7details14__impl_udivremILi8EEEu2CMvbT__hS1_S1_u2CMvrT__h(<8 x i8>, <8 x i8>, <8 x i8>*) #8 comdat {
  %4 = alloca <8 x i8>, align 8
  %5 = alloca <8 x i8>, align 8
  %6 = alloca <8 x i8>*, align 8
  %7 = alloca <8 x i16>, align 16
  %8 = alloca <8 x i16>, align 16
  %9 = alloca <8 x i16>, align 16
  %10 = alloca <8 x i8>, align 8
  store <8 x i8> %0, <8 x i8>* %4, align 8, !tbaa !7
  store <8 x i8> %1, <8 x i8>* %5, align 8, !tbaa !7
  store <8 x i8>* %2, <8 x i8>** %6, align 8, !tbaa !7
  %11 = load <8 x i8>, <8 x i8>* %4, align 8, !tbaa !7
  %12 = zext <8 x i8> %11 to <8 x i16>
  store <8 x i16> %12, <8 x i16>* %7, align 16, !tbaa !7
  %13 = load <8 x i8>, <8 x i8>* %5, align 8, !tbaa !7
  %14 = zext <8 x i8> %13 to <8 x i16>
  store <8 x i16> %14, <8 x i16>* %8, align 16, !tbaa !7
  %15 = load <8 x i16>, <8 x i16>* %7, align 16, !tbaa !7
  %16 = load <8 x i16>, <8 x i16>* %8, align 16, !tbaa !7
  %17 = call <8 x i16> @_ZN7details14__impl_udivremILi8EEEu2CMvbT__tS1_S1_u2CMvrT__t(<8 x i16> %15, <8 x i16> %16, <8 x i16>* %9)
  %18 = trunc <8 x i16> %17 to <8 x i8>
  store <8 x i8> %18, <8 x i8>* %10, align 8, !tbaa !7
  %19 = load <8 x i16>, <8 x i16>* %9, align 16, !tbaa !7
  %20 = trunc <8 x i16> %19 to <8 x i8>
  call void @llvm.genx.vstore.v8i8.p0v8i8(<8 x i8> %20, <8 x i8>* %2)
  %21 = load <8 x i8>, <8 x i8>* %10, align 8, !tbaa !7
  ret <8 x i8> %21
}

; Function Attrs: noinline nounwind
define dso_local <16 x i8> @_Z24__cm_intrinsic_impl_udivu2CMvb16_hS_(<16 x i8>, <16 x i8>) #16 {
  %3 = alloca <16 x i8>, align 16
  %4 = alloca <16 x i8>, align 16
  %5 = alloca <16 x i8>, align 16
  %6 = alloca <16 x i8>, align 16
  store <16 x i8> %0, <16 x i8>* %3, align 16, !tbaa !7
  store <16 x i8> %1, <16 x i8>* %4, align 16, !tbaa !7
  %7 = load <16 x i8>, <16 x i8>* %3, align 16, !tbaa !7
  %8 = load <16 x i8>, <16 x i8>* %4, align 16, !tbaa !7
  %9 = call <16 x i8> @_ZN7details14__impl_udivremILi16EEEu2CMvbT__hS1_S1_u2CMvrT__h(<16 x i8> %7, <16 x i8> %8, <16 x i8>* %5)
  store <16 x i8> %9, <16 x i8>* %6, align 16, !tbaa !7
  %10 = load <16 x i8>, <16 x i8>* %6, align 16, !tbaa !7
  ret <16 x i8> %10
}

; Function Attrs: alwaysinline inlinehint nounwind
define internal <16 x i8> @_ZN7details14__impl_udivremILi16EEEu2CMvbT__hS1_S1_u2CMvrT__h(<16 x i8>, <16 x i8>, <16 x i8>*) #10 comdat {
  %4 = alloca <16 x i8>, align 16
  %5 = alloca <16 x i8>, align 16
  %6 = alloca <16 x i8>*, align 16
  %7 = alloca <16 x i16>, align 32
  %8 = alloca <16 x i16>, align 32
  %9 = alloca <16 x i16>, align 32
  %10 = alloca <16 x i8>, align 16
  store <16 x i8> %0, <16 x i8>* %4, align 16, !tbaa !7
  store <16 x i8> %1, <16 x i8>* %5, align 16, !tbaa !7
  store <16 x i8>* %2, <16 x i8>** %6, align 16, !tbaa !7
  %11 = load <16 x i8>, <16 x i8>* %4, align 16, !tbaa !7
  %12 = zext <16 x i8> %11 to <16 x i16>
  store <16 x i16> %12, <16 x i16>* %7, align 32, !tbaa !7
  %13 = load <16 x i8>, <16 x i8>* %5, align 16, !tbaa !7
  %14 = zext <16 x i8> %13 to <16 x i16>
  store <16 x i16> %14, <16 x i16>* %8, align 32, !tbaa !7
  %15 = load <16 x i16>, <16 x i16>* %7, align 32, !tbaa !7
  %16 = load <16 x i16>, <16 x i16>* %8, align 32, !tbaa !7
  %17 = call <16 x i16> @_ZN7details14__impl_udivremILi16EEEu2CMvbT__tS1_S1_u2CMvrT__t(<16 x i16> %15, <16 x i16> %16, <16 x i16>* %9)
  %18 = trunc <16 x i16> %17 to <16 x i8>
  store <16 x i8> %18, <16 x i8>* %10, align 16, !tbaa !7
  %19 = load <16 x i16>, <16 x i16>* %9, align 32, !tbaa !7
  %20 = trunc <16 x i16> %19 to <16 x i8>
  call void @llvm.genx.vstore.v16i8.p0v16i8(<16 x i8> %20, <16 x i8>* %2)
  %21 = load <16 x i8>, <16 x i8>* %10, align 16, !tbaa !7
  ret <16 x i8> %21
}

; Function Attrs: noinline nounwind
define internal <32 x i8> @_Z24__cm_intrinsic_impl_udivu2CMvb32_hS_(<32 x i8>, <32 x i8>) #17 {
  %3 = alloca <32 x i8>, align 32
  %4 = alloca <32 x i8>, align 32
  %5 = alloca <32 x i8>, align 32
  %6 = alloca <32 x i8>, align 32
  store <32 x i8> %0, <32 x i8>* %3, align 32, !tbaa !7
  store <32 x i8> %1, <32 x i8>* %4, align 32, !tbaa !7
  %7 = load <32 x i8>, <32 x i8>* %3, align 32, !tbaa !7
  %8 = load <32 x i8>, <32 x i8>* %4, align 32, !tbaa !7
  %9 = call <32 x i8> @_ZN7details14__impl_udivremILi32EEEu2CMvbT__hS1_S1_u2CMvrT__h(<32 x i8> %7, <32 x i8> %8, <32 x i8>* %5)
  store <32 x i8> %9, <32 x i8>* %6, align 32, !tbaa !7
  %10 = load <32 x i8>, <32 x i8>* %6, align 32, !tbaa !7
  ret <32 x i8> %10
}

; Function Attrs: alwaysinline inlinehint nounwind
define internal <32 x i8> @_ZN7details14__impl_udivremILi32EEEu2CMvbT__hS1_S1_u2CMvrT__h(<32 x i8>, <32 x i8>, <32 x i8>*) #12 comdat {
  %4 = alloca <32 x i8>, align 32
  %5 = alloca <32 x i8>, align 32
  %6 = alloca <32 x i8>*, align 32
  %7 = alloca <32 x i16>, align 64
  %8 = alloca <32 x i16>, align 64
  %9 = alloca <32 x i16>, align 64
  %10 = alloca <32 x i8>, align 32
  store <32 x i8> %0, <32 x i8>* %4, align 32, !tbaa !7
  store <32 x i8> %1, <32 x i8>* %5, align 32, !tbaa !7
  store <32 x i8>* %2, <32 x i8>** %6, align 32, !tbaa !7
  %11 = load <32 x i8>, <32 x i8>* %4, align 32, !tbaa !7
  %12 = zext <32 x i8> %11 to <32 x i16>
  store <32 x i16> %12, <32 x i16>* %7, align 64, !tbaa !7
  %13 = load <32 x i8>, <32 x i8>* %5, align 32, !tbaa !7
  %14 = zext <32 x i8> %13 to <32 x i16>
  store <32 x i16> %14, <32 x i16>* %8, align 64, !tbaa !7
  %15 = load <32 x i16>, <32 x i16>* %7, align 64, !tbaa !7
  %16 = load <32 x i16>, <32 x i16>* %8, align 64, !tbaa !7
  %17 = call <32 x i16> @_ZN7details14__impl_udivremILi32EEEu2CMvbT__tS1_S1_u2CMvrT__t(<32 x i16> %15, <32 x i16> %16, <32 x i16>* %9)
  %18 = trunc <32 x i16> %17 to <32 x i8>
  store <32 x i8> %18, <32 x i8>* %10, align 32, !tbaa !7
  %19 = load <32 x i16>, <32 x i16>* %9, align 64, !tbaa !7
  %20 = trunc <32 x i16> %19 to <32 x i8>
  call void @llvm.genx.vstore.v32i8.p0v32i8(<32 x i8> %20, <32 x i8>* %2)
  %21 = load <32 x i8>, <32 x i8>* %10, align 32, !tbaa !7
  ret <32 x i8> %21
}

; Function Attrs: noinline nounwind
define internal zeroext i8 @_Z24__cm_intrinsic_impl_uremhh(i8 zeroext, i8 zeroext) #21 {
  %3 = alloca i8, align 1
  %4 = alloca i8, align 1
  %5 = alloca <1 x i8>, align 1
  %6 = alloca <1 x i8>, align 1
  %7 = alloca <1 x i8>, align 1
  store i8 %0, i8* %3, align 1, !tbaa !7
  store i8 %1, i8* %4, align 1, !tbaa !7
  %8 = load i8, i8* %3, align 1, !tbaa !7
  %9 = insertelement <1 x i8> undef, i8 %8, i32 0
  %10 = shufflevector <1 x i8> %9, <1 x i8> undef, <1 x i32> zeroinitializer
  store <1 x i8> %10, <1 x i8>* %5, align 1, !tbaa !7
  %11 = load i8, i8* %4, align 1, !tbaa !7
  %12 = insertelement <1 x i8> undef, i8 %11, i32 0
  %13 = shufflevector <1 x i8> %12, <1 x i8> undef, <1 x i32> zeroinitializer
  store <1 x i8> %13, <1 x i8>* %6, align 1, !tbaa !7
  %14 = load <1 x i8>, <1 x i8>* %5, align 1, !tbaa !7
  %15 = load <1 x i8>, <1 x i8>* %6, align 1, !tbaa !7
  %16 = call <1 x i8> @_ZN7details14__impl_udivremILi1EEEu2CMvbT__hS1_S1_u2CMvrT__h(<1 x i8> %14, <1 x i8> %15, <1 x i8>* %7)
  %17 = load <1 x i8>, <1 x i8>* %7, align 1, !tbaa !7
  %18 = call <1 x i8> @llvm.genx.rdregioni.v1i8.v1i8.i16(<1 x i8> %17, i32 0, i32 1, i32 0, i16 0, i32 undef)
  %19 = extractelement <1 x i8> %18, i32 0
  ret i8 %19
}

; Function Attrs: noinline nounwind
define internal <1 x i8> @_Z24__cm_intrinsic_impl_uremu2CMvb1_hS_(<1 x i8>, <1 x i8>) #21 {
  %3 = alloca <1 x i8>, align 1
  %4 = alloca <1 x i8>, align 1
  %5 = alloca <1 x i8>, align 1
  store <1 x i8> %0, <1 x i8>* %3, align 1, !tbaa !7
  store <1 x i8> %1, <1 x i8>* %4, align 1, !tbaa !7
  %6 = load <1 x i8>, <1 x i8>* %3, align 1, !tbaa !7
  %7 = load <1 x i8>, <1 x i8>* %4, align 1, !tbaa !7
  %8 = call <1 x i8> @_ZN7details14__impl_udivremILi1EEEu2CMvbT__hS1_S1_u2CMvrT__h(<1 x i8> %6, <1 x i8> %7, <1 x i8>* %5)
  %9 = load <1 x i8>, <1 x i8>* %5, align 1, !tbaa !7
  ret <1 x i8> %9
}

; Function Attrs: noinline nounwind
define internal <2 x i8> @_Z24__cm_intrinsic_impl_uremu2CMvb2_hS_(<2 x i8>, <2 x i8>) #22 {
  %3 = alloca <2 x i8>, align 2
  %4 = alloca <2 x i8>, align 2
  %5 = alloca <2 x i8>, align 2
  store <2 x i8> %0, <2 x i8>* %3, align 2, !tbaa !7
  store <2 x i8> %1, <2 x i8>* %4, align 2, !tbaa !7
  %6 = load <2 x i8>, <2 x i8>* %3, align 2, !tbaa !7
  %7 = load <2 x i8>, <2 x i8>* %4, align 2, !tbaa !7
  %8 = call <2 x i8> @_ZN7details14__impl_udivremILi2EEEu2CMvbT__hS1_S1_u2CMvrT__h(<2 x i8> %6, <2 x i8> %7, <2 x i8>* %5)
  %9 = load <2 x i8>, <2 x i8>* %5, align 2, !tbaa !7
  ret <2 x i8> %9
}

; Function Attrs: noinline nounwind
define internal <4 x i8> @_Z24__cm_intrinsic_impl_uremu2CMvb4_hS_(<4 x i8>, <4 x i8>) #14 {
  %3 = alloca <4 x i8>, align 4
  %4 = alloca <4 x i8>, align 4
  %5 = alloca <4 x i8>, align 4
  store <4 x i8> %0, <4 x i8>* %3, align 4, !tbaa !7
  store <4 x i8> %1, <4 x i8>* %4, align 4, !tbaa !7
  %6 = load <4 x i8>, <4 x i8>* %3, align 4, !tbaa !7
  %7 = load <4 x i8>, <4 x i8>* %4, align 4, !tbaa !7
  %8 = call <4 x i8> @_ZN7details14__impl_udivremILi4EEEu2CMvbT__hS1_S1_u2CMvrT__h(<4 x i8> %6, <4 x i8> %7, <4 x i8>* %5)
  %9 = load <4 x i8>, <4 x i8>* %5, align 4, !tbaa !7
  ret <4 x i8> %9
}

; Function Attrs: noinline nounwind
define internal <8 x i8> @_Z24__cm_intrinsic_impl_uremu2CMvb8_hS_(<8 x i8>, <8 x i8>) #15 {
  %3 = alloca <8 x i8>, align 8
  %4 = alloca <8 x i8>, align 8
  %5 = alloca <8 x i8>, align 8
  store <8 x i8> %0, <8 x i8>* %3, align 8, !tbaa !7
  store <8 x i8> %1, <8 x i8>* %4, align 8, !tbaa !7
  %6 = load <8 x i8>, <8 x i8>* %3, align 8, !tbaa !7
  %7 = load <8 x i8>, <8 x i8>* %4, align 8, !tbaa !7
  %8 = call <8 x i8> @_ZN7details14__impl_udivremILi8EEEu2CMvbT__hS1_S1_u2CMvrT__h(<8 x i8> %6, <8 x i8> %7, <8 x i8>* %5)
  %9 = load <8 x i8>, <8 x i8>* %5, align 8, !tbaa !7
  ret <8 x i8> %9
}

; Function Attrs: noinline nounwind
define internal <16 x i8> @_Z24__cm_intrinsic_impl_uremu2CMvb16_hS_(<16 x i8>, <16 x i8>) #16 {
  %3 = alloca <16 x i8>, align 16
  %4 = alloca <16 x i8>, align 16
  %5 = alloca <16 x i8>, align 16
  store <16 x i8> %0, <16 x i8>* %3, align 16, !tbaa !7
  store <16 x i8> %1, <16 x i8>* %4, align 16, !tbaa !7
  %6 = load <16 x i8>, <16 x i8>* %3, align 16, !tbaa !7
  %7 = load <16 x i8>, <16 x i8>* %4, align 16, !tbaa !7
  %8 = call <16 x i8> @_ZN7details14__impl_udivremILi16EEEu2CMvbT__hS1_S1_u2CMvrT__h(<16 x i8> %6, <16 x i8> %7, <16 x i8>* %5)
  %9 = load <16 x i8>, <16 x i8>* %5, align 16, !tbaa !7
  ret <16 x i8> %9
}

; Function Attrs: noinline nounwind
define internal <32 x i8> @_Z24__cm_intrinsic_impl_uremu2CMvb32_hS_(<32 x i8>, <32 x i8>) #17 {
  %3 = alloca <32 x i8>, align 32
  %4 = alloca <32 x i8>, align 32
  %5 = alloca <32 x i8>, align 32
  store <32 x i8> %0, <32 x i8>* %3, align 32, !tbaa !7
  store <32 x i8> %1, <32 x i8>* %4, align 32, !tbaa !7
  %6 = load <32 x i8>, <32 x i8>* %3, align 32, !tbaa !7
  %7 = load <32 x i8>, <32 x i8>* %4, align 32, !tbaa !7
  %8 = call <32 x i8> @_ZN7details14__impl_udivremILi32EEEu2CMvbT__hS1_S1_u2CMvrT__h(<32 x i8> %6, <32 x i8> %7, <32 x i8>* %5)
  %9 = load <32 x i8>, <32 x i8>* %5, align 32, !tbaa !7
  ret <32 x i8> %9
}

; Function Attrs: noinline nounwind
define internal zeroext i16 @_Z24__cm_intrinsic_impl_udivtt(i16 zeroext, i16 zeroext) #22 {
  %3 = alloca i16, align 2
  %4 = alloca i16, align 2
  %5 = alloca <1 x i16>, align 2
  %6 = alloca <1 x i16>, align 2
  %7 = alloca <1 x i16>, align 2
  %8 = alloca <1 x i16>, align 2
  store i16 %0, i16* %3, align 2, !tbaa !11
  store i16 %1, i16* %4, align 2, !tbaa !11
  %9 = load i16, i16* %3, align 2, !tbaa !11
  %10 = insertelement <1 x i16> undef, i16 %9, i32 0
  %11 = shufflevector <1 x i16> %10, <1 x i16> undef, <1 x i32> zeroinitializer
  store <1 x i16> %11, <1 x i16>* %5, align 2, !tbaa !7
  %12 = load i16, i16* %4, align 2, !tbaa !11
  %13 = insertelement <1 x i16> undef, i16 %12, i32 0
  %14 = shufflevector <1 x i16> %13, <1 x i16> undef, <1 x i32> zeroinitializer
  store <1 x i16> %14, <1 x i16>* %6, align 2, !tbaa !7
  %15 = load <1 x i16>, <1 x i16>* %5, align 2, !tbaa !7
  %16 = load <1 x i16>, <1 x i16>* %6, align 2, !tbaa !7
  %17 = call <1 x i16> @_ZN7details14__impl_udivremILi1EEEu2CMvbT__tS1_S1_u2CMvrT__t(<1 x i16> %15, <1 x i16> %16, <1 x i16>* %7)
  store <1 x i16> %17, <1 x i16>* %8, align 2, !tbaa !7
  %18 = load <1 x i16>, <1 x i16>* %8, align 2, !tbaa !7
  %19 = call <1 x i16> @llvm.genx.rdregioni.v1i16.v1i16.i16(<1 x i16> %18, i32 0, i32 1, i32 0, i16 0, i32 undef)
  %20 = extractelement <1 x i16> %19, i32 0
  ret i16 %20
}

; Function Attrs: alwaysinline inlinehint nounwind
define internal <1 x i16> @_ZN7details14__impl_udivremILi1EEEu2CMvbT__tS1_S1_u2CMvrT__t(<1 x i16>, <1 x i16>, <1 x i16>*) #1 comdat {
  %4 = alloca <1 x i16>, align 2
  %5 = alloca <1 x i16>, align 2
  %6 = alloca <1 x i16>*, align 2
  %7 = alloca <1 x float>, align 4
  %8 = alloca <1 x float>, align 4
  %9 = alloca <1 x float>, align 4
  %10 = alloca <1 x float>, align 4
  %11 = alloca <1 x i16>, align 2
  store <1 x i16> %0, <1 x i16>* %4, align 2, !tbaa !7
  store <1 x i16> %1, <1 x i16>* %5, align 2, !tbaa !7
  store <1 x i16>* %2, <1 x i16>** %6, align 2, !tbaa !7
  %12 = load <1 x i16>, <1 x i16>* %5, align 2, !tbaa !7
  %13 = uitofp <1 x i16> %12 to <1 x float>
  store <1 x float> %13, <1 x float>* %8, align 4, !tbaa !7
  %14 = load <1 x i16>, <1 x i16>* %4, align 2, !tbaa !7
  %15 = uitofp <1 x i16> %14 to <1 x float>
  store <1 x float> %15, <1 x float>* %7, align 4, !tbaa !7
  %16 = load <1 x float>, <1 x float>* %8, align 4, !tbaa !7
  %17 = fdiv <1 x float> <float 1.000000e+00>, %16
  store <1 x float> %17, <1 x float>* %9, align 4, !tbaa !7
  %18 = load <1 x float>, <1 x float>* %7, align 4, !tbaa !7
  %19 = call float @_ZN7details16__impl_hex2floatEj(i32 1065353224)
  %20 = insertelement <1 x float> undef, float %19, i32 0
  %21 = shufflevector <1 x float> %20, <1 x float> undef, <1 x i32> zeroinitializer
  %22 = fmul <1 x float> %18, %21
  store <1 x float> %22, <1 x float>* %7, align 4, !tbaa !7
  %23 = load <1 x float>, <1 x float>* %7, align 4, !tbaa !7
  %24 = load <1 x float>, <1 x float>* %9, align 4, !tbaa !7
  %25 = fmul <1 x float> %23, %24
  store <1 x float> %25, <1 x float>* %10, align 4, !tbaa !7
  %26 = load <1 x float>, <1 x float>* %10, align 4, !tbaa !7
  %27 = fptosi <1 x float> %26 to <1 x i32>
  %28 = trunc <1 x i32> %27 to <1 x i16>
  store <1 x i16> %28, <1 x i16>* %11, align 2, !tbaa !7
  %29 = load <1 x i16>, <1 x i16>* %4, align 2, !tbaa !7
  %30 = zext <1 x i16> %29 to <1 x i32>
  %31 = load <1 x i16>, <1 x i16>* %11, align 2, !tbaa !7
  %32 = zext <1 x i16> %31 to <1 x i32>
  %33 = load <1 x i16>, <1 x i16>* %5, align 2, !tbaa !7
  %34 = zext <1 x i16> %33 to <1 x i32>
  %35 = mul <1 x i32> %32, %34
  %36 = sub <1 x i32> %30, %35
  %37 = trunc <1 x i32> %36 to <1 x i16>
  store <1 x i16> %37, <1 x i16>* %2
  %38 = load <1 x i16>, <1 x i16>* %11, align 2, !tbaa !7
  ret <1 x i16> %38
}

; Function Attrs: noinline nounwind
define internal <1 x i16> @_Z24__cm_intrinsic_impl_udivu2CMvb1_tS_(<1 x i16>, <1 x i16>) #22 {
  %3 = alloca <1 x i16>, align 2
  %4 = alloca <1 x i16>, align 2
  %5 = alloca <1 x i16>, align 2
  %6 = alloca <1 x i16>, align 2
  store <1 x i16> %0, <1 x i16>* %3, align 2, !tbaa !7
  store <1 x i16> %1, <1 x i16>* %4, align 2, !tbaa !7
  %7 = load <1 x i16>, <1 x i16>* %3, align 2, !tbaa !7
  %8 = load <1 x i16>, <1 x i16>* %4, align 2, !tbaa !7
  %9 = call <1 x i16> @_ZN7details14__impl_udivremILi1EEEu2CMvbT__tS1_S1_u2CMvrT__t(<1 x i16> %7, <1 x i16> %8, <1 x i16>* %5)
  store <1 x i16> %9, <1 x i16>* %6, align 2, !tbaa !7
  %10 = load <1 x i16>, <1 x i16>* %6, align 2, !tbaa !7
  ret <1 x i16> %10
}

; Function Attrs: noinline nounwind
define internal <2 x i16> @_Z24__cm_intrinsic_impl_udivu2CMvb2_tS_(<2 x i16>, <2 x i16>) #14 {
  %3 = alloca <2 x i16>, align 4
  %4 = alloca <2 x i16>, align 4
  %5 = alloca <2 x i16>, align 4
  %6 = alloca <2 x i16>, align 4
  store <2 x i16> %0, <2 x i16>* %3, align 4, !tbaa !7
  store <2 x i16> %1, <2 x i16>* %4, align 4, !tbaa !7
  %7 = load <2 x i16>, <2 x i16>* %3, align 4, !tbaa !7
  %8 = load <2 x i16>, <2 x i16>* %4, align 4, !tbaa !7
  %9 = call <2 x i16> @_ZN7details14__impl_udivremILi2EEEu2CMvbT__tS1_S1_u2CMvrT__t(<2 x i16> %7, <2 x i16> %8, <2 x i16>* %5)
  store <2 x i16> %9, <2 x i16>* %6, align 4, !tbaa !7
  %10 = load <2 x i16>, <2 x i16>* %6, align 4, !tbaa !7
  ret <2 x i16> %10
}

; Function Attrs: alwaysinline inlinehint nounwind
define internal <2 x i16> @_ZN7details14__impl_udivremILi2EEEu2CMvbT__tS1_S1_u2CMvrT__t(<2 x i16>, <2 x i16>, <2 x i16>*) #4 comdat {
  %4 = alloca <2 x i16>, align 4
  %5 = alloca <2 x i16>, align 4
  %6 = alloca <2 x i16>*, align 4
  %7 = alloca <2 x float>, align 8
  %8 = alloca <2 x float>, align 8
  %9 = alloca <2 x float>, align 8
  %10 = alloca <2 x float>, align 8
  %11 = alloca <2 x i16>, align 4
  store <2 x i16> %0, <2 x i16>* %4, align 4, !tbaa !7
  store <2 x i16> %1, <2 x i16>* %5, align 4, !tbaa !7
  store <2 x i16>* %2, <2 x i16>** %6, align 4, !tbaa !7
  %12 = load <2 x i16>, <2 x i16>* %5, align 4, !tbaa !7
  %13 = uitofp <2 x i16> %12 to <2 x float>
  store <2 x float> %13, <2 x float>* %8, align 8, !tbaa !7
  %14 = load <2 x i16>, <2 x i16>* %4, align 4, !tbaa !7
  %15 = uitofp <2 x i16> %14 to <2 x float>
  store <2 x float> %15, <2 x float>* %7, align 8, !tbaa !7
  %16 = load <2 x float>, <2 x float>* %8, align 8, !tbaa !7
  %17 = fdiv <2 x float> <float 1.000000e+00, float 1.000000e+00>, %16
  store <2 x float> %17, <2 x float>* %9, align 8, !tbaa !7
  %18 = load <2 x float>, <2 x float>* %7, align 8, !tbaa !7
  %19 = call float @_ZN7details16__impl_hex2floatEj(i32 1065353224)
  %20 = insertelement <2 x float> undef, float %19, i32 0
  %21 = shufflevector <2 x float> %20, <2 x float> undef, <2 x i32> zeroinitializer
  %22 = fmul <2 x float> %18, %21
  store <2 x float> %22, <2 x float>* %7, align 8, !tbaa !7
  %23 = load <2 x float>, <2 x float>* %7, align 8, !tbaa !7
  %24 = load <2 x float>, <2 x float>* %9, align 8, !tbaa !7
  %25 = fmul <2 x float> %23, %24
  store <2 x float> %25, <2 x float>* %10, align 8, !tbaa !7
  %26 = load <2 x float>, <2 x float>* %10, align 8, !tbaa !7
  %27 = fptosi <2 x float> %26 to <2 x i32>
  %28 = trunc <2 x i32> %27 to <2 x i16>
  store <2 x i16> %28, <2 x i16>* %11, align 4, !tbaa !7
  %29 = load <2 x i16>, <2 x i16>* %4, align 4, !tbaa !7
  %30 = zext <2 x i16> %29 to <2 x i32>
  %31 = load <2 x i16>, <2 x i16>* %11, align 4, !tbaa !7
  %32 = zext <2 x i16> %31 to <2 x i32>
  %33 = load <2 x i16>, <2 x i16>* %5, align 4, !tbaa !7
  %34 = zext <2 x i16> %33 to <2 x i32>
  %35 = mul <2 x i32> %32, %34
  %36 = sub <2 x i32> %30, %35
  %37 = trunc <2 x i32> %36 to <2 x i16>
  call void @llvm.genx.vstore.v2i16.p0v2i16(<2 x i16> %37, <2 x i16>* %2)
  %38 = load <2 x i16>, <2 x i16>* %11, align 4, !tbaa !7
  ret <2 x i16> %38
}

; Function Attrs: noinline nounwind
define internal <4 x i16> @_Z24__cm_intrinsic_impl_udivu2CMvb4_tS_(<4 x i16>, <4 x i16>) #15 {
  %3 = alloca <4 x i16>, align 8
  %4 = alloca <4 x i16>, align 8
  %5 = alloca <4 x i16>, align 8
  %6 = alloca <4 x i16>, align 8
  store <4 x i16> %0, <4 x i16>* %3, align 8, !tbaa !7
  store <4 x i16> %1, <4 x i16>* %4, align 8, !tbaa !7
  %7 = load <4 x i16>, <4 x i16>* %3, align 8, !tbaa !7
  %8 = load <4 x i16>, <4 x i16>* %4, align 8, !tbaa !7
  %9 = call <4 x i16> @_ZN7details14__impl_udivremILi4EEEu2CMvbT__tS1_S1_u2CMvrT__t(<4 x i16> %7, <4 x i16> %8, <4 x i16>* %5)
  store <4 x i16> %9, <4 x i16>* %6, align 8, !tbaa !7
  %10 = load <4 x i16>, <4 x i16>* %6, align 8, !tbaa !7
  ret <4 x i16> %10
}

; Function Attrs: alwaysinline inlinehint nounwind
define internal <4 x i16> @_ZN7details14__impl_udivremILi4EEEu2CMvbT__tS1_S1_u2CMvrT__t(<4 x i16>, <4 x i16>, <4 x i16>*) #6 comdat {
  %4 = alloca <4 x i16>, align 8
  %5 = alloca <4 x i16>, align 8
  %6 = alloca <4 x i16>*, align 8
  %7 = alloca <4 x float>, align 16
  %8 = alloca <4 x float>, align 16
  %9 = alloca <4 x float>, align 16
  %10 = alloca <4 x float>, align 16
  %11 = alloca <4 x i16>, align 8
  store <4 x i16> %0, <4 x i16>* %4, align 8, !tbaa !7
  store <4 x i16> %1, <4 x i16>* %5, align 8, !tbaa !7
  store <4 x i16>* %2, <4 x i16>** %6, align 8, !tbaa !7
  %12 = load <4 x i16>, <4 x i16>* %5, align 8, !tbaa !7
  %13 = uitofp <4 x i16> %12 to <4 x float>
  store <4 x float> %13, <4 x float>* %8, align 16, !tbaa !7
  %14 = load <4 x i16>, <4 x i16>* %4, align 8, !tbaa !7
  %15 = uitofp <4 x i16> %14 to <4 x float>
  store <4 x float> %15, <4 x float>* %7, align 16, !tbaa !7
  %16 = load <4 x float>, <4 x float>* %8, align 16, !tbaa !7
  %17 = fdiv <4 x float> <float 1.000000e+00, float 1.000000e+00, float 1.000000e+00, float 1.000000e+00>, %16
  store <4 x float> %17, <4 x float>* %9, align 16, !tbaa !7
  %18 = load <4 x float>, <4 x float>* %7, align 16, !tbaa !7
  %19 = call float @_ZN7details16__impl_hex2floatEj(i32 1065353224)
  %20 = insertelement <4 x float> undef, float %19, i32 0
  %21 = shufflevector <4 x float> %20, <4 x float> undef, <4 x i32> zeroinitializer
  %22 = fmul <4 x float> %18, %21
  store <4 x float> %22, <4 x float>* %7, align 16, !tbaa !7
  %23 = load <4 x float>, <4 x float>* %7, align 16, !tbaa !7
  %24 = load <4 x float>, <4 x float>* %9, align 16, !tbaa !7
  %25 = fmul <4 x float> %23, %24
  store <4 x float> %25, <4 x float>* %10, align 16, !tbaa !7
  %26 = load <4 x float>, <4 x float>* %10, align 16, !tbaa !7
  %27 = fptosi <4 x float> %26 to <4 x i32>
  %28 = trunc <4 x i32> %27 to <4 x i16>
  store <4 x i16> %28, <4 x i16>* %11, align 8, !tbaa !7
  %29 = load <4 x i16>, <4 x i16>* %4, align 8, !tbaa !7
  %30 = zext <4 x i16> %29 to <4 x i32>
  %31 = load <4 x i16>, <4 x i16>* %11, align 8, !tbaa !7
  %32 = zext <4 x i16> %31 to <4 x i32>
  %33 = load <4 x i16>, <4 x i16>* %5, align 8, !tbaa !7
  %34 = zext <4 x i16> %33 to <4 x i32>
  %35 = mul <4 x i32> %32, %34
  %36 = sub <4 x i32> %30, %35
  %37 = trunc <4 x i32> %36 to <4 x i16>
  call void @llvm.genx.vstore.v4i16.p0v4i16(<4 x i16> %37, <4 x i16>* %2)
  %38 = load <4 x i16>, <4 x i16>* %11, align 8, !tbaa !7
  ret <4 x i16> %38
}

; Function Attrs: noinline nounwind
define dso_local <8 x i16> @_Z24__cm_intrinsic_impl_udivu2CMvb8_tS_(<8 x i16>, <8 x i16>) #16 {
  %3 = alloca <8 x i16>, align 16
  %4 = alloca <8 x i16>, align 16
  %5 = alloca <8 x i16>, align 16
  %6 = alloca <8 x i16>, align 16
  store <8 x i16> %0, <8 x i16>* %3, align 16, !tbaa !7
  store <8 x i16> %1, <8 x i16>* %4, align 16, !tbaa !7
  %7 = load <8 x i16>, <8 x i16>* %3, align 16, !tbaa !7
  %8 = load <8 x i16>, <8 x i16>* %4, align 16, !tbaa !7
  %9 = call <8 x i16> @_ZN7details14__impl_udivremILi8EEEu2CMvbT__tS1_S1_u2CMvrT__t(<8 x i16> %7, <8 x i16> %8, <8 x i16>* %5)
  store <8 x i16> %9, <8 x i16>* %6, align 16, !tbaa !7
  %10 = load <8 x i16>, <8 x i16>* %6, align 16, !tbaa !7
  ret <8 x i16> %10
}

; Function Attrs: alwaysinline inlinehint nounwind
define internal <8 x i16> @_ZN7details14__impl_udivremILi8EEEu2CMvbT__tS1_S1_u2CMvrT__t(<8 x i16>, <8 x i16>, <8 x i16>*) #8 comdat {
  %4 = alloca <8 x i16>, align 16
  %5 = alloca <8 x i16>, align 16
  %6 = alloca <8 x i16>*, align 16
  %7 = alloca <8 x float>, align 32
  %8 = alloca <8 x float>, align 32
  %9 = alloca <8 x float>, align 32
  %10 = alloca <8 x float>, align 32
  %11 = alloca <8 x i16>, align 16
  store <8 x i16> %0, <8 x i16>* %4, align 16, !tbaa !7
  store <8 x i16> %1, <8 x i16>* %5, align 16, !tbaa !7
  store <8 x i16>* %2, <8 x i16>** %6, align 16, !tbaa !7
  %12 = load <8 x i16>, <8 x i16>* %5, align 16, !tbaa !7
  %13 = uitofp <8 x i16> %12 to <8 x float>
  store <8 x float> %13, <8 x float>* %8, align 32, !tbaa !7
  %14 = load <8 x i16>, <8 x i16>* %4, align 16, !tbaa !7
  %15 = uitofp <8 x i16> %14 to <8 x float>
  store <8 x float> %15, <8 x float>* %7, align 32, !tbaa !7
  %16 = load <8 x float>, <8 x float>* %8, align 32, !tbaa !7
  %17 = fdiv <8 x float> <float 1.000000e+00, float 1.000000e+00, float 1.000000e+00, float 1.000000e+00, float 1.000000e+00, float 1.000000e+00, float 1.000000e+00, float 1.000000e+00>, %16
  store <8 x float> %17, <8 x float>* %9, align 32, !tbaa !7
  %18 = load <8 x float>, <8 x float>* %7, align 32, !tbaa !7
  %19 = call float @_ZN7details16__impl_hex2floatEj(i32 1065353224)
  %20 = insertelement <8 x float> undef, float %19, i32 0
  %21 = shufflevector <8 x float> %20, <8 x float> undef, <8 x i32> zeroinitializer
  %22 = fmul <8 x float> %18, %21
  store <8 x float> %22, <8 x float>* %7, align 32, !tbaa !7
  %23 = load <8 x float>, <8 x float>* %7, align 32, !tbaa !7
  %24 = load <8 x float>, <8 x float>* %9, align 32, !tbaa !7
  %25 = fmul <8 x float> %23, %24
  store <8 x float> %25, <8 x float>* %10, align 32, !tbaa !7
  %26 = load <8 x float>, <8 x float>* %10, align 32, !tbaa !7
  %27 = fptosi <8 x float> %26 to <8 x i32>
  %28 = trunc <8 x i32> %27 to <8 x i16>
  store <8 x i16> %28, <8 x i16>* %11, align 16, !tbaa !7
  %29 = load <8 x i16>, <8 x i16>* %4, align 16, !tbaa !7
  %30 = zext <8 x i16> %29 to <8 x i32>
  %31 = load <8 x i16>, <8 x i16>* %11, align 16, !tbaa !7
  %32 = zext <8 x i16> %31 to <8 x i32>
  %33 = load <8 x i16>, <8 x i16>* %5, align 16, !tbaa !7
  %34 = zext <8 x i16> %33 to <8 x i32>
  %35 = mul <8 x i32> %32, %34
  %36 = sub <8 x i32> %30, %35
  %37 = trunc <8 x i32> %36 to <8 x i16>
  call void @llvm.genx.vstore.v8i16.p0v8i16(<8 x i16> %37, <8 x i16>* %2)
  %38 = load <8 x i16>, <8 x i16>* %11, align 16, !tbaa !7
  ret <8 x i16> %38
}

; Function Attrs: noinline nounwind
define dso_local <16 x i16> @_Z24__cm_intrinsic_impl_udivu2CMvb16_tS_(<16 x i16>, <16 x i16>) #17 {
  %3 = alloca <16 x i16>, align 32
  %4 = alloca <16 x i16>, align 32
  %5 = alloca <16 x i16>, align 32
  %6 = alloca <16 x i16>, align 32
  store <16 x i16> %0, <16 x i16>* %3, align 32, !tbaa !7
  store <16 x i16> %1, <16 x i16>* %4, align 32, !tbaa !7
  %7 = load <16 x i16>, <16 x i16>* %3, align 32, !tbaa !7
  %8 = load <16 x i16>, <16 x i16>* %4, align 32, !tbaa !7
  %9 = call <16 x i16> @_ZN7details14__impl_udivremILi16EEEu2CMvbT__tS1_S1_u2CMvrT__t(<16 x i16> %7, <16 x i16> %8, <16 x i16>* %5)
  store <16 x i16> %9, <16 x i16>* %6, align 32, !tbaa !7
  %10 = load <16 x i16>, <16 x i16>* %6, align 32, !tbaa !7
  ret <16 x i16> %10
}

; Function Attrs: alwaysinline inlinehint nounwind
define internal <16 x i16> @_ZN7details14__impl_udivremILi16EEEu2CMvbT__tS1_S1_u2CMvrT__t(<16 x i16>, <16 x i16>, <16 x i16>*) #10 comdat {
  %4 = alloca <16 x i16>, align 32
  %5 = alloca <16 x i16>, align 32
  %6 = alloca <16 x i16>*, align 32
  %7 = alloca <16 x float>, align 64
  %8 = alloca <16 x float>, align 64
  %9 = alloca <16 x float>, align 64
  %10 = alloca <16 x float>, align 64
  %11 = alloca <16 x i16>, align 32
  store <16 x i16> %0, <16 x i16>* %4, align 32, !tbaa !7
  store <16 x i16> %1, <16 x i16>* %5, align 32, !tbaa !7
  store <16 x i16>* %2, <16 x i16>** %6, align 32, !tbaa !7
  %12 = load <16 x i16>, <16 x i16>* %5, align 32, !tbaa !7
  %13 = uitofp <16 x i16> %12 to <16 x float>
  store <16 x float> %13, <16 x float>* %8, align 64, !tbaa !7
  %14 = load <16 x i16>, <16 x i16>* %4, align 32, !tbaa !7
  %15 = uitofp <16 x i16> %14 to <16 x float>
  store <16 x float> %15, <16 x float>* %7, align 64, !tbaa !7
  %16 = load <16 x float>, <16 x float>* %8, align 64, !tbaa !7
  %17 = fdiv <16 x float> <float 1.000000e+00, float 1.000000e+00, float 1.000000e+00, float 1.000000e+00, float 1.000000e+00, float 1.000000e+00, float 1.000000e+00, float 1.000000e+00, float 1.000000e+00, float 1.000000e+00, float 1.000000e+00, float 1.000000e+00, float 1.000000e+00, float 1.000000e+00, float 1.000000e+00, float 1.000000e+00>, %16
  store <16 x float> %17, <16 x float>* %9, align 64, !tbaa !7
  %18 = load <16 x float>, <16 x float>* %7, align 64, !tbaa !7
  %19 = call float @_ZN7details16__impl_hex2floatEj(i32 1065353224)
  %20 = insertelement <16 x float> undef, float %19, i32 0
  %21 = shufflevector <16 x float> %20, <16 x float> undef, <16 x i32> zeroinitializer
  %22 = fmul <16 x float> %18, %21
  store <16 x float> %22, <16 x float>* %7, align 64, !tbaa !7
  %23 = load <16 x float>, <16 x float>* %7, align 64, !tbaa !7
  %24 = load <16 x float>, <16 x float>* %9, align 64, !tbaa !7
  %25 = fmul <16 x float> %23, %24
  store <16 x float> %25, <16 x float>* %10, align 64, !tbaa !7
  %26 = load <16 x float>, <16 x float>* %10, align 64, !tbaa !7
  %27 = fptosi <16 x float> %26 to <16 x i32>
  %28 = trunc <16 x i32> %27 to <16 x i16>
  store <16 x i16> %28, <16 x i16>* %11, align 32, !tbaa !7
  %29 = load <16 x i16>, <16 x i16>* %4, align 32, !tbaa !7
  %30 = zext <16 x i16> %29 to <16 x i32>
  %31 = load <16 x i16>, <16 x i16>* %11, align 32, !tbaa !7
  %32 = zext <16 x i16> %31 to <16 x i32>
  %33 = load <16 x i16>, <16 x i16>* %5, align 32, !tbaa !7
  %34 = zext <16 x i16> %33 to <16 x i32>
  %35 = mul <16 x i32> %32, %34
  %36 = sub <16 x i32> %30, %35
  %37 = trunc <16 x i32> %36 to <16 x i16>
  call void @llvm.genx.vstore.v16i16.p0v16i16(<16 x i16> %37, <16 x i16>* %2)
  %38 = load <16 x i16>, <16 x i16>* %11, align 32, !tbaa !7
  ret <16 x i16> %38
}

; Function Attrs: noinline nounwind
define internal <32 x i16> @_Z24__cm_intrinsic_impl_udivu2CMvb32_tS_(<32 x i16>, <32 x i16>) #18 {
  %3 = alloca <32 x i16>, align 64
  %4 = alloca <32 x i16>, align 64
  %5 = alloca <32 x i16>, align 64
  %6 = alloca <32 x i16>, align 64
  store <32 x i16> %0, <32 x i16>* %3, align 64, !tbaa !7
  store <32 x i16> %1, <32 x i16>* %4, align 64, !tbaa !7
  %7 = load <32 x i16>, <32 x i16>* %3, align 64, !tbaa !7
  %8 = load <32 x i16>, <32 x i16>* %4, align 64, !tbaa !7
  %9 = call <32 x i16> @_ZN7details14__impl_udivremILi32EEEu2CMvbT__tS1_S1_u2CMvrT__t(<32 x i16> %7, <32 x i16> %8, <32 x i16>* %5)
  store <32 x i16> %9, <32 x i16>* %6, align 64, !tbaa !7
  %10 = load <32 x i16>, <32 x i16>* %6, align 64, !tbaa !7
  ret <32 x i16> %10
}

; Function Attrs: alwaysinline inlinehint nounwind
define internal <32 x i16> @_ZN7details14__impl_udivremILi32EEEu2CMvbT__tS1_S1_u2CMvrT__t(<32 x i16>, <32 x i16>, <32 x i16>*) #12 comdat {
  %4 = alloca <32 x i16>, align 64
  %5 = alloca <32 x i16>, align 64
  %6 = alloca <32 x i16>*, align 64
  %7 = alloca <32 x float>, align 128
  %8 = alloca <32 x float>, align 128
  %9 = alloca <32 x float>, align 128
  %10 = alloca <32 x float>, align 128
  %11 = alloca <32 x i16>, align 64
  store <32 x i16> %0, <32 x i16>* %4, align 64, !tbaa !7
  store <32 x i16> %1, <32 x i16>* %5, align 64, !tbaa !7
  store <32 x i16>* %2, <32 x i16>** %6, align 64, !tbaa !7
  %12 = load <32 x i16>, <32 x i16>* %5, align 64, !tbaa !7
  %13 = uitofp <32 x i16> %12 to <32 x float>
  store <32 x float> %13, <32 x float>* %8, align 128, !tbaa !7
  %14 = load <32 x i16>, <32 x i16>* %4, align 64, !tbaa !7
  %15 = uitofp <32 x i16> %14 to <32 x float>
  store <32 x float> %15, <32 x float>* %7, align 128, !tbaa !7
  %16 = load <32 x float>, <32 x float>* %8, align 128, !tbaa !7
  %17 = fdiv <32 x float> <float 1.000000e+00, float 1.000000e+00, float 1.000000e+00, float 1.000000e+00, float 1.000000e+00, float 1.000000e+00, float 1.000000e+00, float 1.000000e+00, float 1.000000e+00, float 1.000000e+00, float 1.000000e+00, float 1.000000e+00, float 1.000000e+00, float 1.000000e+00, float 1.000000e+00, float 1.000000e+00, float 1.000000e+00, float 1.000000e+00, float 1.000000e+00, float 1.000000e+00, float 1.000000e+00, float 1.000000e+00, float 1.000000e+00, float 1.000000e+00, float 1.000000e+00, float 1.000000e+00, float 1.000000e+00, float 1.000000e+00, float 1.000000e+00, float 1.000000e+00, float 1.000000e+00, float 1.000000e+00>, %16
  store <32 x float> %17, <32 x float>* %9, align 128, !tbaa !7
  %18 = load <32 x float>, <32 x float>* %7, align 128, !tbaa !7
  %19 = call float @_ZN7details16__impl_hex2floatEj(i32 1065353224)
  %20 = insertelement <32 x float> undef, float %19, i32 0
  %21 = shufflevector <32 x float> %20, <32 x float> undef, <32 x i32> zeroinitializer
  %22 = fmul <32 x float> %18, %21
  store <32 x float> %22, <32 x float>* %7, align 128, !tbaa !7
  %23 = load <32 x float>, <32 x float>* %7, align 128, !tbaa !7
  %24 = load <32 x float>, <32 x float>* %9, align 128, !tbaa !7
  %25 = fmul <32 x float> %23, %24
  store <32 x float> %25, <32 x float>* %10, align 128, !tbaa !7
  %26 = load <32 x float>, <32 x float>* %10, align 128, !tbaa !7
  %27 = fptosi <32 x float> %26 to <32 x i32>
  %28 = trunc <32 x i32> %27 to <32 x i16>
  store <32 x i16> %28, <32 x i16>* %11, align 64, !tbaa !7
  %29 = load <32 x i16>, <32 x i16>* %4, align 64, !tbaa !7
  %30 = zext <32 x i16> %29 to <32 x i32>
  %31 = load <32 x i16>, <32 x i16>* %11, align 64, !tbaa !7
  %32 = zext <32 x i16> %31 to <32 x i32>
  %33 = load <32 x i16>, <32 x i16>* %5, align 64, !tbaa !7
  %34 = zext <32 x i16> %33 to <32 x i32>
  %35 = mul <32 x i32> %32, %34
  %36 = sub <32 x i32> %30, %35
  %37 = trunc <32 x i32> %36 to <32 x i16>
  call void @llvm.genx.vstore.v32i16.p0v32i16(<32 x i16> %37, <32 x i16>* %2)
  %38 = load <32 x i16>, <32 x i16>* %11, align 64, !tbaa !7
  ret <32 x i16> %38
}

; Function Attrs: noinline nounwind
define internal zeroext i16 @_Z24__cm_intrinsic_impl_uremtt(i16 zeroext, i16 zeroext) #22 {
  %3 = alloca i16, align 2
  %4 = alloca i16, align 2
  %5 = alloca <1 x i16>, align 2
  %6 = alloca <1 x i16>, align 2
  %7 = alloca <1 x i16>, align 2
  store i16 %0, i16* %3, align 2, !tbaa !11
  store i16 %1, i16* %4, align 2, !tbaa !11
  %8 = load i16, i16* %3, align 2, !tbaa !11
  %9 = insertelement <1 x i16> undef, i16 %8, i32 0
  %10 = shufflevector <1 x i16> %9, <1 x i16> undef, <1 x i32> zeroinitializer
  store <1 x i16> %10, <1 x i16>* %5, align 2, !tbaa !7
  %11 = load i16, i16* %4, align 2, !tbaa !11
  %12 = insertelement <1 x i16> undef, i16 %11, i32 0
  %13 = shufflevector <1 x i16> %12, <1 x i16> undef, <1 x i32> zeroinitializer
  store <1 x i16> %13, <1 x i16>* %6, align 2, !tbaa !7
  %14 = load <1 x i16>, <1 x i16>* %5, align 2, !tbaa !7
  %15 = load <1 x i16>, <1 x i16>* %6, align 2, !tbaa !7
  %16 = call <1 x i16> @_ZN7details14__impl_udivremILi1EEEu2CMvbT__tS1_S1_u2CMvrT__t(<1 x i16> %14, <1 x i16> %15, <1 x i16>* %7)
  %17 = load <1 x i16>, <1 x i16>* %7, align 2, !tbaa !7
  %18 = call <1 x i16> @llvm.genx.rdregioni.v1i16.v1i16.i16(<1 x i16> %17, i32 0, i32 1, i32 0, i16 0, i32 undef)
  %19 = extractelement <1 x i16> %18, i32 0
  ret i16 %19
}

; Function Attrs: noinline nounwind
define internal <1 x i16> @_Z24__cm_intrinsic_impl_uremu2CMvb1_tS_(<1 x i16>, <1 x i16>) #22 {
  %3 = alloca <1 x i16>, align 2
  %4 = alloca <1 x i16>, align 2
  %5 = alloca <1 x i16>, align 2
  store <1 x i16> %0, <1 x i16>* %3, align 2, !tbaa !7
  store <1 x i16> %1, <1 x i16>* %4, align 2, !tbaa !7
  %6 = load <1 x i16>, <1 x i16>* %3, align 2, !tbaa !7
  %7 = load <1 x i16>, <1 x i16>* %4, align 2, !tbaa !7
  %8 = call <1 x i16> @_ZN7details14__impl_udivremILi1EEEu2CMvbT__tS1_S1_u2CMvrT__t(<1 x i16> %6, <1 x i16> %7, <1 x i16>* %5)
  %9 = load <1 x i16>, <1 x i16>* %5, align 2, !tbaa !7
  ret <1 x i16> %9
}

; Function Attrs: noinline nounwind
define internal <2 x i16> @_Z24__cm_intrinsic_impl_uremu2CMvb2_tS_(<2 x i16>, <2 x i16>) #14 {
  %3 = alloca <2 x i16>, align 4
  %4 = alloca <2 x i16>, align 4
  %5 = alloca <2 x i16>, align 4
  store <2 x i16> %0, <2 x i16>* %3, align 4, !tbaa !7
  store <2 x i16> %1, <2 x i16>* %4, align 4, !tbaa !7
  %6 = load <2 x i16>, <2 x i16>* %3, align 4, !tbaa !7
  %7 = load <2 x i16>, <2 x i16>* %4, align 4, !tbaa !7
  %8 = call <2 x i16> @_ZN7details14__impl_udivremILi2EEEu2CMvbT__tS1_S1_u2CMvrT__t(<2 x i16> %6, <2 x i16> %7, <2 x i16>* %5)
  %9 = load <2 x i16>, <2 x i16>* %5, align 4, !tbaa !7
  ret <2 x i16> %9
}

; Function Attrs: noinline nounwind
define internal <4 x i16> @_Z24__cm_intrinsic_impl_uremu2CMvb4_tS_(<4 x i16>, <4 x i16>) #15 {
  %3 = alloca <4 x i16>, align 8
  %4 = alloca <4 x i16>, align 8
  %5 = alloca <4 x i16>, align 8
  store <4 x i16> %0, <4 x i16>* %3, align 8, !tbaa !7
  store <4 x i16> %1, <4 x i16>* %4, align 8, !tbaa !7
  %6 = load <4 x i16>, <4 x i16>* %3, align 8, !tbaa !7
  %7 = load <4 x i16>, <4 x i16>* %4, align 8, !tbaa !7
  %8 = call <4 x i16> @_ZN7details14__impl_udivremILi4EEEu2CMvbT__tS1_S1_u2CMvrT__t(<4 x i16> %6, <4 x i16> %7, <4 x i16>* %5)
  %9 = load <4 x i16>, <4 x i16>* %5, align 8, !tbaa !7
  ret <4 x i16> %9
}

; Function Attrs: noinline nounwind
define internal <8 x i16> @_Z24__cm_intrinsic_impl_uremu2CMvb8_tS_(<8 x i16>, <8 x i16>) #16 {
  %3 = alloca <8 x i16>, align 16
  %4 = alloca <8 x i16>, align 16
  %5 = alloca <8 x i16>, align 16
  store <8 x i16> %0, <8 x i16>* %3, align 16, !tbaa !7
  store <8 x i16> %1, <8 x i16>* %4, align 16, !tbaa !7
  %6 = load <8 x i16>, <8 x i16>* %3, align 16, !tbaa !7
  %7 = load <8 x i16>, <8 x i16>* %4, align 16, !tbaa !7
  %8 = call <8 x i16> @_ZN7details14__impl_udivremILi8EEEu2CMvbT__tS1_S1_u2CMvrT__t(<8 x i16> %6, <8 x i16> %7, <8 x i16>* %5)
  %9 = load <8 x i16>, <8 x i16>* %5, align 16, !tbaa !7
  ret <8 x i16> %9
}

; Function Attrs: noinline nounwind
define internal <16 x i16> @_Z24__cm_intrinsic_impl_uremu2CMvb16_tS_(<16 x i16>, <16 x i16>) #17 {
  %3 = alloca <16 x i16>, align 32
  %4 = alloca <16 x i16>, align 32
  %5 = alloca <16 x i16>, align 32
  store <16 x i16> %0, <16 x i16>* %3, align 32, !tbaa !7
  store <16 x i16> %1, <16 x i16>* %4, align 32, !tbaa !7
  %6 = load <16 x i16>, <16 x i16>* %3, align 32, !tbaa !7
  %7 = load <16 x i16>, <16 x i16>* %4, align 32, !tbaa !7
  %8 = call <16 x i16> @_ZN7details14__impl_udivremILi16EEEu2CMvbT__tS1_S1_u2CMvrT__t(<16 x i16> %6, <16 x i16> %7, <16 x i16>* %5)
  %9 = load <16 x i16>, <16 x i16>* %5, align 32, !tbaa !7
  ret <16 x i16> %9
}

; Function Attrs: noinline nounwind
define internal <32 x i16> @_Z24__cm_intrinsic_impl_uremu2CMvb32_tS_(<32 x i16>, <32 x i16>) #18 {
  %3 = alloca <32 x i16>, align 64
  %4 = alloca <32 x i16>, align 64
  %5 = alloca <32 x i16>, align 64
  store <32 x i16> %0, <32 x i16>* %3, align 64, !tbaa !7
  store <32 x i16> %1, <32 x i16>* %4, align 64, !tbaa !7
  %6 = load <32 x i16>, <32 x i16>* %3, align 64, !tbaa !7
  %7 = load <32 x i16>, <32 x i16>* %4, align 64, !tbaa !7
  %8 = call <32 x i16> @_ZN7details14__impl_udivremILi32EEEu2CMvbT__tS1_S1_u2CMvrT__t(<32 x i16> %6, <32 x i16> %7, <32 x i16>* %5)
  %9 = load <32 x i16>, <32 x i16>* %5, align 64, !tbaa !7
  ret <32 x i16> %9
}

; Function Attrs: noinline nounwind
define internal i32 @_Z24__cm_intrinsic_impl_udivjj(i32, i32) #14 {
  %3 = alloca i32, align 4
  %4 = alloca i32, align 4
  %5 = alloca <1 x i32>, align 4
  %6 = alloca <1 x i32>, align 4
  %7 = alloca <1 x i32>, align 4
  %8 = alloca <1 x i32>, align 4
  store i32 %0, i32* %3, align 4, !tbaa !13
  store i32 %1, i32* %4, align 4, !tbaa !13
  %9 = load i32, i32* %3, align 4, !tbaa !13
  %10 = insertelement <1 x i32> undef, i32 %9, i32 0
  %11 = shufflevector <1 x i32> %10, <1 x i32> undef, <1 x i32> zeroinitializer
  store <1 x i32> %11, <1 x i32>* %5, align 4, !tbaa !7
  %12 = load i32, i32* %4, align 4, !tbaa !13
  %13 = insertelement <1 x i32> undef, i32 %12, i32 0
  %14 = shufflevector <1 x i32> %13, <1 x i32> undef, <1 x i32> zeroinitializer
  store <1 x i32> %14, <1 x i32>* %6, align 4, !tbaa !7
  %15 = load <1 x i32>, <1 x i32>* %5, align 4, !tbaa !7
  %16 = load <1 x i32>, <1 x i32>* %6, align 4, !tbaa !7
  %17 = call <1 x i32> @_ZN7details14__impl_udivremILi1EEEu2CMvbT__jS1_S1_u2CMvrT__j(<1 x i32> %15, <1 x i32> %16, <1 x i32>* %7)
  store <1 x i32> %17, <1 x i32>* %8, align 4, !tbaa !7
  %18 = load <1 x i32>, <1 x i32>* %8, align 4, !tbaa !7
  %19 = call <1 x i32> @llvm.genx.rdregioni.v1i32.v1i32.i16(<1 x i32> %18, i32 0, i32 1, i32 0, i16 0, i32 undef)
  %20 = extractelement <1 x i32> %19, i32 0
  ret i32 %20
}

; Function Attrs: alwaysinline inlinehint nounwind
define internal <1 x i32> @_ZN7details14__impl_udivremILi1EEEu2CMvbT__jS1_S1_u2CMvrT__j(<1 x i32>, <1 x i32>, <1 x i32>*) #4 comdat {
  %4 = alloca <1 x i32>, align 4
  %5 = alloca <1 x i32>, align 4
  %6 = alloca <1 x i32>*, align 4
  %7 = alloca <1 x float>, align 4
  %8 = alloca <1 x float>, align 4
  %9 = alloca <1 x float>, align 4
  %10 = alloca <1 x float>, align 4
  %11 = alloca <1 x float>, align 4
  %12 = alloca <1 x float>, align 4
  %13 = alloca <1 x float>, align 4
  %14 = alloca <1 x float>, align 4
  %15 = alloca <1 x float>, align 4
  %16 = alloca <1 x i32>, align 4
  %17 = alloca <1 x i32>, align 4
  %18 = alloca <1 x i32>, align 4
  %19 = alloca <1 x i32>, align 4
  %20 = alloca <1 x i32>, align 4
  %21 = alloca <1 x i32>, align 4
  %22 = alloca <1 x i32>, align 4
  %23 = alloca <1 x i32>, align 4
  %24 = alloca <1 x i32>, align 4
  store <1 x i32> %0, <1 x i32>* %4, align 4, !tbaa !7
  store <1 x i32> %1, <1 x i32>* %5, align 4, !tbaa !7
  store <1 x i32>* %2, <1 x i32>** %6, align 4, !tbaa !7
  %25 = load <1 x i32>, <1 x i32>* %5, align 4, !tbaa !7
  %26 = uitofp <1 x i32> %25 to <1 x float>
  store <1 x float> %26, <1 x float>* %9, align 4, !tbaa !7
  %27 = load <1 x float>, <1 x float>* %9, align 4, !tbaa !7
  %28 = fptosi <1 x float> %27 to <1 x i32>
  store <1 x i32> %28, <1 x i32>* %17, align 4, !tbaa !7
  %29 = load <1 x i32>, <1 x i32>* %5, align 4, !tbaa !7
  %30 = load <1 x i32>, <1 x i32>* %17, align 4, !tbaa !7
  %31 = sub <1 x i32> %29, %30
  store <1 x i32> %31, <1 x i32>* %19, align 4, !tbaa !7
  %32 = load <1 x i32>, <1 x i32>* %19, align 4, !tbaa !7
  %33 = uitofp <1 x i32> %32 to <1 x float>
  store <1 x float> %33, <1 x float>* %10, align 4, !tbaa !7
  %34 = load <1 x i32>, <1 x i32>* %4, align 4, !tbaa !7
  %35 = uitofp <1 x i32> %34 to <1 x float>
  store <1 x float> %35, <1 x float>* %7, align 4, !tbaa !7
  %36 = load <1 x float>, <1 x float>* %7, align 4, !tbaa !7
  %37 = fptosi <1 x float> %36 to <1 x i32>
  store <1 x i32> %37, <1 x i32>* %16, align 4, !tbaa !7
  %38 = load <1 x i32>, <1 x i32>* %4, align 4, !tbaa !7
  %39 = load <1 x i32>, <1 x i32>* %16, align 4, !tbaa !7
  %40 = sub <1 x i32> %38, %39
  store <1 x i32> %40, <1 x i32>* %18, align 4, !tbaa !7
  %41 = load <1 x i32>, <1 x i32>* %18, align 4, !tbaa !7
  %42 = uitofp <1 x i32> %41 to <1 x float>
  store <1 x float> %42, <1 x float>* %8, align 4, !tbaa !7
  %43 = load <1 x float>, <1 x float>* %9, align 4, !tbaa !7
  %44 = fdiv <1 x float> <float 1.000000e+00>, %43
  store <1 x float> %44, <1 x float>* %11, align 4, !tbaa !7
  %45 = load <1 x float>, <1 x float>* %11, align 4, !tbaa !7
  %46 = call float @_ZN7details16__impl_hex2floatEj(i32 -1262485504)
  %47 = insertelement <1 x float> undef, float %46, i32 0
  %48 = shufflevector <1 x float> %47, <1 x float> undef, <1 x i32> zeroinitializer
  %49 = fmul <1 x float> %45, %48
  %50 = load <1 x float>, <1 x float>* %11, align 4, !tbaa !7
  %51 = fadd <1 x float> %50, %49
  store <1 x float> %51, <1 x float>* %11, align 4, !tbaa !7
  %52 = load <1 x float>, <1 x float>* %7, align 4, !tbaa !7
  %53 = load <1 x float>, <1 x float>* %11, align 4, !tbaa !7
  %54 = fmul <1 x float> %52, %53
  store <1 x float> %54, <1 x float>* %12, align 4, !tbaa !7
  %55 = load <1 x float>, <1 x float>* %12, align 4, !tbaa !7
  %56 = fptosi <1 x float> %55 to <1 x i32>
  store <1 x i32> %56, <1 x i32>* %20, align 4, !tbaa !7
  %57 = load <1 x i32>, <1 x i32>* %20, align 4, !tbaa !7
  %58 = uitofp <1 x i32> %57 to <1 x float>
  store <1 x float> %58, <1 x float>* %12, align 4, !tbaa !7
  %59 = load <1 x float>, <1 x float>* %7, align 4, !tbaa !7
  %60 = load <1 x float>, <1 x float>* %9, align 4, !tbaa !7
  %61 = load <1 x float>, <1 x float>* %12, align 4, !tbaa !7
  %62 = fmul <1 x float> %60, %61
  %63 = fsub <1 x float> %59, %62
  store <1 x float> %63, <1 x float>* %14, align 4, !tbaa !7
  %64 = load <1 x float>, <1 x float>* %8, align 4, !tbaa !7
  %65 = load <1 x float>, <1 x float>* %10, align 4, !tbaa !7
  %66 = load <1 x float>, <1 x float>* %12, align 4, !tbaa !7
  %67 = fmul <1 x float> %65, %66
  %68 = fsub <1 x float> %64, %67
  store <1 x float> %68, <1 x float>* %15, align 4, !tbaa !7
  %69 = load <1 x float>, <1 x float>* %14, align 4, !tbaa !7
  %70 = load <1 x float>, <1 x float>* %15, align 4, !tbaa !7
  %71 = fadd <1 x float> %69, %70
  store <1 x float> %71, <1 x float>* %15, align 4, !tbaa !7
  %72 = load <1 x float>, <1 x float>* %11, align 4, !tbaa !7
  %73 = load <1 x float>, <1 x float>* %15, align 4, !tbaa !7
  %74 = fmul <1 x float> %72, %73
  store <1 x float> %74, <1 x float>* %13, align 4, !tbaa !7
  %75 = load <1 x float>, <1 x float>* %13, align 4, !tbaa !7
  %76 = fptosi <1 x float> %75 to <1 x i32>
  store <1 x i32> %76, <1 x i32>* %21, align 4, !tbaa !7
  %77 = load <1 x i32>, <1 x i32>* %20, align 4, !tbaa !7
  %78 = load <1 x i32>, <1 x i32>* %21, align 4, !tbaa !7
  %79 = add <1 x i32> %77, %78
  store <1 x i32> %79, <1 x i32>* %22, align 4, !tbaa !7
  %80 = load <1 x i32>, <1 x i32>* %4, align 4, !tbaa !7
  %81 = load <1 x i32>, <1 x i32>* %5, align 4, !tbaa !7
  %82 = load <1 x i32>, <1 x i32>* %22, align 4, !tbaa !7
  %83 = mul <1 x i32> %81, %82
  %84 = sub <1 x i32> %80, %83
  store <1 x i32> %84, <1 x i32>* %23, align 4, !tbaa !7
  %85 = load <1 x i32>, <1 x i32>* %23, align 4, !tbaa !7
  %86 = load <1 x i32>, <1 x i32>* %5, align 4, !tbaa !7
  %87 = icmp uge <1 x i32> %85, %86
  %88 = zext <1 x i1> %87 to <1 x i16>
  %89 = trunc <1 x i16> %88 to <1 x i1>
  %90 = select <1 x i1> %89, <1 x i32> <i32 -1>, <1 x i32> zeroinitializer
  store <1 x i32> %90, <1 x i32>* %24, align 4, !tbaa !7
  %91 = load <1 x i32>, <1 x i32>* %24, align 4, !tbaa !7
  %92 = and <1 x i32> %91, <i32 1>
  %93 = load <1 x i32>, <1 x i32>* %22, align 4, !tbaa !7
  %94 = add <1 x i32> %93, %92
  store <1 x i32> %94, <1 x i32>* %22, align 4, !tbaa !7
  %95 = load <1 x i32>, <1 x i32>* %5, align 4, !tbaa !7
  %96 = load <1 x i32>, <1 x i32>* %24, align 4, !tbaa !7
  %97 = and <1 x i32> %95, %96
  %98 = load <1 x i32>, <1 x i32>* %23, align 4, !tbaa !7
  %99 = sub <1 x i32> %98, %97
  store <1 x i32> %99, <1 x i32>* %23, align 4, !tbaa !7
  %100 = load <1 x i32>, <1 x i32>* %23, align 4, !tbaa !7
  store <1 x i32> %100, <1 x i32>* %2
  %101 = load <1 x i32>, <1 x i32>* %22, align 4, !tbaa !7
  ret <1 x i32> %101
}

; Function Attrs: noinline nounwind
define internal <1 x i32> @_Z24__cm_intrinsic_impl_udivu2CMvb1_jS_(<1 x i32>, <1 x i32>) #14 {
  %3 = alloca <1 x i32>, align 4
  %4 = alloca <1 x i32>, align 4
  %5 = alloca <1 x i32>, align 4
  %6 = alloca <1 x i32>, align 4
  store <1 x i32> %0, <1 x i32>* %3, align 4, !tbaa !7
  store <1 x i32> %1, <1 x i32>* %4, align 4, !tbaa !7
  %7 = load <1 x i32>, <1 x i32>* %3, align 4, !tbaa !7
  %8 = load <1 x i32>, <1 x i32>* %4, align 4, !tbaa !7
  %9 = call <1 x i32> @_ZN7details14__impl_udivremILi1EEEu2CMvbT__jS1_S1_u2CMvrT__j(<1 x i32> %7, <1 x i32> %8, <1 x i32>* %5)
  store <1 x i32> %9, <1 x i32>* %6, align 4, !tbaa !7
  %10 = load <1 x i32>, <1 x i32>* %6, align 4, !tbaa !7
  ret <1 x i32> %10
}

; Function Attrs: noinline nounwind
define internal <2 x i32> @_Z24__cm_intrinsic_impl_udivu2CMvb2_jS_(<2 x i32>, <2 x i32>) #15 {
  %3 = alloca <2 x i32>, align 8
  %4 = alloca <2 x i32>, align 8
  %5 = alloca <2 x i32>, align 8
  %6 = alloca <2 x i32>, align 8
  store <2 x i32> %0, <2 x i32>* %3, align 8, !tbaa !7
  store <2 x i32> %1, <2 x i32>* %4, align 8, !tbaa !7
  %7 = load <2 x i32>, <2 x i32>* %3, align 8, !tbaa !7
  %8 = load <2 x i32>, <2 x i32>* %4, align 8, !tbaa !7
  %9 = call <2 x i32> @_ZN7details14__impl_udivremILi2EEEu2CMvbT__jS1_S1_u2CMvrT__j(<2 x i32> %7, <2 x i32> %8, <2 x i32>* %5)
  store <2 x i32> %9, <2 x i32>* %6, align 8, !tbaa !7
  %10 = load <2 x i32>, <2 x i32>* %6, align 8, !tbaa !7
  ret <2 x i32> %10
}

; Function Attrs: alwaysinline inlinehint nounwind
define internal <2 x i32> @_ZN7details14__impl_udivremILi2EEEu2CMvbT__jS1_S1_u2CMvrT__j(<2 x i32>, <2 x i32>, <2 x i32>*) #6 comdat {
  %4 = alloca <2 x i32>, align 8
  %5 = alloca <2 x i32>, align 8
  %6 = alloca <2 x i32>*, align 8
  %7 = alloca <2 x float>, align 8
  %8 = alloca <2 x float>, align 8
  %9 = alloca <2 x float>, align 8
  %10 = alloca <2 x float>, align 8
  %11 = alloca <2 x float>, align 8
  %12 = alloca <2 x float>, align 8
  %13 = alloca <2 x float>, align 8
  %14 = alloca <2 x float>, align 8
  %15 = alloca <2 x float>, align 8
  %16 = alloca <2 x i32>, align 8
  %17 = alloca <2 x i32>, align 8
  %18 = alloca <2 x i32>, align 8
  %19 = alloca <2 x i32>, align 8
  %20 = alloca <2 x i32>, align 8
  %21 = alloca <2 x i32>, align 8
  %22 = alloca <2 x i32>, align 8
  %23 = alloca <2 x i32>, align 8
  %24 = alloca <2 x i32>, align 8
  store <2 x i32> %0, <2 x i32>* %4, align 8, !tbaa !7
  store <2 x i32> %1, <2 x i32>* %5, align 8, !tbaa !7
  store <2 x i32>* %2, <2 x i32>** %6, align 8, !tbaa !7
  %25 = load <2 x i32>, <2 x i32>* %5, align 8, !tbaa !7
  %26 = uitofp <2 x i32> %25 to <2 x float>
  store <2 x float> %26, <2 x float>* %9, align 8, !tbaa !7
  %27 = load <2 x float>, <2 x float>* %9, align 8, !tbaa !7
  %28 = fptosi <2 x float> %27 to <2 x i32>
  store <2 x i32> %28, <2 x i32>* %17, align 8, !tbaa !7
  %29 = load <2 x i32>, <2 x i32>* %5, align 8, !tbaa !7
  %30 = load <2 x i32>, <2 x i32>* %17, align 8, !tbaa !7
  %31 = sub <2 x i32> %29, %30
  store <2 x i32> %31, <2 x i32>* %19, align 8, !tbaa !7
  %32 = load <2 x i32>, <2 x i32>* %19, align 8, !tbaa !7
  %33 = uitofp <2 x i32> %32 to <2 x float>
  store <2 x float> %33, <2 x float>* %10, align 8, !tbaa !7
  %34 = load <2 x i32>, <2 x i32>* %4, align 8, !tbaa !7
  %35 = uitofp <2 x i32> %34 to <2 x float>
  store <2 x float> %35, <2 x float>* %7, align 8, !tbaa !7
  %36 = load <2 x float>, <2 x float>* %7, align 8, !tbaa !7
  %37 = fptosi <2 x float> %36 to <2 x i32>
  store <2 x i32> %37, <2 x i32>* %16, align 8, !tbaa !7
  %38 = load <2 x i32>, <2 x i32>* %4, align 8, !tbaa !7
  %39 = load <2 x i32>, <2 x i32>* %16, align 8, !tbaa !7
  %40 = sub <2 x i32> %38, %39
  store <2 x i32> %40, <2 x i32>* %18, align 8, !tbaa !7
  %41 = load <2 x i32>, <2 x i32>* %18, align 8, !tbaa !7
  %42 = uitofp <2 x i32> %41 to <2 x float>
  store <2 x float> %42, <2 x float>* %8, align 8, !tbaa !7
  %43 = load <2 x float>, <2 x float>* %9, align 8, !tbaa !7
  %44 = fdiv <2 x float> <float 1.000000e+00, float 1.000000e+00>, %43
  store <2 x float> %44, <2 x float>* %11, align 8, !tbaa !7
  %45 = load <2 x float>, <2 x float>* %11, align 8, !tbaa !7
  %46 = call float @_ZN7details16__impl_hex2floatEj(i32 -1262485504)
  %47 = insertelement <2 x float> undef, float %46, i32 0
  %48 = shufflevector <2 x float> %47, <2 x float> undef, <2 x i32> zeroinitializer
  %49 = fmul <2 x float> %45, %48
  %50 = load <2 x float>, <2 x float>* %11, align 8, !tbaa !7
  %51 = fadd <2 x float> %50, %49
  store <2 x float> %51, <2 x float>* %11, align 8, !tbaa !7
  %52 = load <2 x float>, <2 x float>* %7, align 8, !tbaa !7
  %53 = load <2 x float>, <2 x float>* %11, align 8, !tbaa !7
  %54 = fmul <2 x float> %52, %53
  store <2 x float> %54, <2 x float>* %12, align 8, !tbaa !7
  %55 = load <2 x float>, <2 x float>* %12, align 8, !tbaa !7
  %56 = fptosi <2 x float> %55 to <2 x i32>
  store <2 x i32> %56, <2 x i32>* %20, align 8, !tbaa !7
  %57 = load <2 x i32>, <2 x i32>* %20, align 8, !tbaa !7
  %58 = uitofp <2 x i32> %57 to <2 x float>
  store <2 x float> %58, <2 x float>* %12, align 8, !tbaa !7
  %59 = load <2 x float>, <2 x float>* %7, align 8, !tbaa !7
  %60 = load <2 x float>, <2 x float>* %9, align 8, !tbaa !7
  %61 = load <2 x float>, <2 x float>* %12, align 8, !tbaa !7
  %62 = fmul <2 x float> %60, %61
  %63 = fsub <2 x float> %59, %62
  store <2 x float> %63, <2 x float>* %14, align 8, !tbaa !7
  %64 = load <2 x float>, <2 x float>* %8, align 8, !tbaa !7
  %65 = load <2 x float>, <2 x float>* %10, align 8, !tbaa !7
  %66 = load <2 x float>, <2 x float>* %12, align 8, !tbaa !7
  %67 = fmul <2 x float> %65, %66
  %68 = fsub <2 x float> %64, %67
  store <2 x float> %68, <2 x float>* %15, align 8, !tbaa !7
  %69 = load <2 x float>, <2 x float>* %14, align 8, !tbaa !7
  %70 = load <2 x float>, <2 x float>* %15, align 8, !tbaa !7
  %71 = fadd <2 x float> %69, %70
  store <2 x float> %71, <2 x float>* %15, align 8, !tbaa !7
  %72 = load <2 x float>, <2 x float>* %11, align 8, !tbaa !7
  %73 = load <2 x float>, <2 x float>* %15, align 8, !tbaa !7
  %74 = fmul <2 x float> %72, %73
  store <2 x float> %74, <2 x float>* %13, align 8, !tbaa !7
  %75 = load <2 x float>, <2 x float>* %13, align 8, !tbaa !7
  %76 = fptosi <2 x float> %75 to <2 x i32>
  store <2 x i32> %76, <2 x i32>* %21, align 8, !tbaa !7
  %77 = load <2 x i32>, <2 x i32>* %20, align 8, !tbaa !7
  %78 = load <2 x i32>, <2 x i32>* %21, align 8, !tbaa !7
  %79 = add <2 x i32> %77, %78
  store <2 x i32> %79, <2 x i32>* %22, align 8, !tbaa !7
  %80 = load <2 x i32>, <2 x i32>* %4, align 8, !tbaa !7
  %81 = load <2 x i32>, <2 x i32>* %5, align 8, !tbaa !7
  %82 = load <2 x i32>, <2 x i32>* %22, align 8, !tbaa !7
  %83 = mul <2 x i32> %81, %82
  %84 = sub <2 x i32> %80, %83
  store <2 x i32> %84, <2 x i32>* %23, align 8, !tbaa !7
  %85 = load <2 x i32>, <2 x i32>* %23, align 8, !tbaa !7
  %86 = load <2 x i32>, <2 x i32>* %5, align 8, !tbaa !7
  %87 = icmp uge <2 x i32> %85, %86
  %88 = zext <2 x i1> %87 to <2 x i16>
  %89 = trunc <2 x i16> %88 to <2 x i1>
  %90 = select <2 x i1> %89, <2 x i32> <i32 -1, i32 -1>, <2 x i32> zeroinitializer
  store <2 x i32> %90, <2 x i32>* %24, align 8, !tbaa !7
  %91 = load <2 x i32>, <2 x i32>* %24, align 8, !tbaa !7
  %92 = and <2 x i32> %91, <i32 1, i32 1>
  %93 = load <2 x i32>, <2 x i32>* %22, align 8, !tbaa !7
  %94 = add <2 x i32> %93, %92
  store <2 x i32> %94, <2 x i32>* %22, align 8, !tbaa !7
  %95 = load <2 x i32>, <2 x i32>* %5, align 8, !tbaa !7
  %96 = load <2 x i32>, <2 x i32>* %24, align 8, !tbaa !7
  %97 = and <2 x i32> %95, %96
  %98 = load <2 x i32>, <2 x i32>* %23, align 8, !tbaa !7
  %99 = sub <2 x i32> %98, %97
  store <2 x i32> %99, <2 x i32>* %23, align 8, !tbaa !7
  %100 = load <2 x i32>, <2 x i32>* %23, align 8, !tbaa !7
  call void @llvm.genx.vstore.v2i32.p0v2i32(<2 x i32> %100, <2 x i32>* %2)
  %101 = load <2 x i32>, <2 x i32>* %22, align 8, !tbaa !7
  ret <2 x i32> %101
}

; Function Attrs: noinline nounwind
define internal <4 x i32> @_Z24__cm_intrinsic_impl_udivu2CMvb4_jS_(<4 x i32>, <4 x i32>) #16 {
  %3 = alloca <4 x i32>, align 16
  %4 = alloca <4 x i32>, align 16
  %5 = alloca <4 x i32>, align 16
  %6 = alloca <4 x i32>, align 16
  store <4 x i32> %0, <4 x i32>* %3, align 16, !tbaa !7
  store <4 x i32> %1, <4 x i32>* %4, align 16, !tbaa !7
  %7 = load <4 x i32>, <4 x i32>* %3, align 16, !tbaa !7
  %8 = load <4 x i32>, <4 x i32>* %4, align 16, !tbaa !7
  %9 = call <4 x i32> @_ZN7details14__impl_udivremILi4EEEu2CMvbT__jS1_S1_u2CMvrT__j(<4 x i32> %7, <4 x i32> %8, <4 x i32>* %5)
  store <4 x i32> %9, <4 x i32>* %6, align 16, !tbaa !7
  %10 = load <4 x i32>, <4 x i32>* %6, align 16, !tbaa !7
  ret <4 x i32> %10
}

; Function Attrs: alwaysinline inlinehint nounwind
define internal <4 x i32> @_ZN7details14__impl_udivremILi4EEEu2CMvbT__jS1_S1_u2CMvrT__j(<4 x i32>, <4 x i32>, <4 x i32>*) #8 comdat {
  %4 = alloca <4 x i32>, align 16
  %5 = alloca <4 x i32>, align 16
  %6 = alloca <4 x i32>*, align 16
  %7 = alloca <4 x float>, align 16
  %8 = alloca <4 x float>, align 16
  %9 = alloca <4 x float>, align 16
  %10 = alloca <4 x float>, align 16
  %11 = alloca <4 x float>, align 16
  %12 = alloca <4 x float>, align 16
  %13 = alloca <4 x float>, align 16
  %14 = alloca <4 x float>, align 16
  %15 = alloca <4 x float>, align 16
  %16 = alloca <4 x i32>, align 16
  %17 = alloca <4 x i32>, align 16
  %18 = alloca <4 x i32>, align 16
  %19 = alloca <4 x i32>, align 16
  %20 = alloca <4 x i32>, align 16
  %21 = alloca <4 x i32>, align 16
  %22 = alloca <4 x i32>, align 16
  %23 = alloca <4 x i32>, align 16
  %24 = alloca <4 x i32>, align 16
  store <4 x i32> %0, <4 x i32>* %4, align 16, !tbaa !7
  store <4 x i32> %1, <4 x i32>* %5, align 16, !tbaa !7
  store <4 x i32>* %2, <4 x i32>** %6, align 16, !tbaa !7
  %25 = load <4 x i32>, <4 x i32>* %5, align 16, !tbaa !7
  %26 = uitofp <4 x i32> %25 to <4 x float>
  store <4 x float> %26, <4 x float>* %9, align 16, !tbaa !7
  %27 = load <4 x float>, <4 x float>* %9, align 16, !tbaa !7
  %28 = fptosi <4 x float> %27 to <4 x i32>
  store <4 x i32> %28, <4 x i32>* %17, align 16, !tbaa !7
  %29 = load <4 x i32>, <4 x i32>* %5, align 16, !tbaa !7
  %30 = load <4 x i32>, <4 x i32>* %17, align 16, !tbaa !7
  %31 = sub <4 x i32> %29, %30
  store <4 x i32> %31, <4 x i32>* %19, align 16, !tbaa !7
  %32 = load <4 x i32>, <4 x i32>* %19, align 16, !tbaa !7
  %33 = uitofp <4 x i32> %32 to <4 x float>
  store <4 x float> %33, <4 x float>* %10, align 16, !tbaa !7
  %34 = load <4 x i32>, <4 x i32>* %4, align 16, !tbaa !7
  %35 = uitofp <4 x i32> %34 to <4 x float>
  store <4 x float> %35, <4 x float>* %7, align 16, !tbaa !7
  %36 = load <4 x float>, <4 x float>* %7, align 16, !tbaa !7
  %37 = fptosi <4 x float> %36 to <4 x i32>
  store <4 x i32> %37, <4 x i32>* %16, align 16, !tbaa !7
  %38 = load <4 x i32>, <4 x i32>* %4, align 16, !tbaa !7
  %39 = load <4 x i32>, <4 x i32>* %16, align 16, !tbaa !7
  %40 = sub <4 x i32> %38, %39
  store <4 x i32> %40, <4 x i32>* %18, align 16, !tbaa !7
  %41 = load <4 x i32>, <4 x i32>* %18, align 16, !tbaa !7
  %42 = uitofp <4 x i32> %41 to <4 x float>
  store <4 x float> %42, <4 x float>* %8, align 16, !tbaa !7
  %43 = load <4 x float>, <4 x float>* %9, align 16, !tbaa !7
  %44 = fdiv <4 x float> <float 1.000000e+00, float 1.000000e+00, float 1.000000e+00, float 1.000000e+00>, %43
  store <4 x float> %44, <4 x float>* %11, align 16, !tbaa !7
  %45 = load <4 x float>, <4 x float>* %11, align 16, !tbaa !7
  %46 = call float @_ZN7details16__impl_hex2floatEj(i32 -1262485504)
  %47 = insertelement <4 x float> undef, float %46, i32 0
  %48 = shufflevector <4 x float> %47, <4 x float> undef, <4 x i32> zeroinitializer
  %49 = fmul <4 x float> %45, %48
  %50 = load <4 x float>, <4 x float>* %11, align 16, !tbaa !7
  %51 = fadd <4 x float> %50, %49
  store <4 x float> %51, <4 x float>* %11, align 16, !tbaa !7
  %52 = load <4 x float>, <4 x float>* %7, align 16, !tbaa !7
  %53 = load <4 x float>, <4 x float>* %11, align 16, !tbaa !7
  %54 = fmul <4 x float> %52, %53
  store <4 x float> %54, <4 x float>* %12, align 16, !tbaa !7
  %55 = load <4 x float>, <4 x float>* %12, align 16, !tbaa !7
  %56 = fptosi <4 x float> %55 to <4 x i32>
  store <4 x i32> %56, <4 x i32>* %20, align 16, !tbaa !7
  %57 = load <4 x i32>, <4 x i32>* %20, align 16, !tbaa !7
  %58 = uitofp <4 x i32> %57 to <4 x float>
  store <4 x float> %58, <4 x float>* %12, align 16, !tbaa !7
  %59 = load <4 x float>, <4 x float>* %7, align 16, !tbaa !7
  %60 = load <4 x float>, <4 x float>* %9, align 16, !tbaa !7
  %61 = load <4 x float>, <4 x float>* %12, align 16, !tbaa !7
  %62 = fmul <4 x float> %60, %61
  %63 = fsub <4 x float> %59, %62
  store <4 x float> %63, <4 x float>* %14, align 16, !tbaa !7
  %64 = load <4 x float>, <4 x float>* %8, align 16, !tbaa !7
  %65 = load <4 x float>, <4 x float>* %10, align 16, !tbaa !7
  %66 = load <4 x float>, <4 x float>* %12, align 16, !tbaa !7
  %67 = fmul <4 x float> %65, %66
  %68 = fsub <4 x float> %64, %67
  store <4 x float> %68, <4 x float>* %15, align 16, !tbaa !7
  %69 = load <4 x float>, <4 x float>* %14, align 16, !tbaa !7
  %70 = load <4 x float>, <4 x float>* %15, align 16, !tbaa !7
  %71 = fadd <4 x float> %69, %70
  store <4 x float> %71, <4 x float>* %15, align 16, !tbaa !7
  %72 = load <4 x float>, <4 x float>* %11, align 16, !tbaa !7
  %73 = load <4 x float>, <4 x float>* %15, align 16, !tbaa !7
  %74 = fmul <4 x float> %72, %73
  store <4 x float> %74, <4 x float>* %13, align 16, !tbaa !7
  %75 = load <4 x float>, <4 x float>* %13, align 16, !tbaa !7
  %76 = fptosi <4 x float> %75 to <4 x i32>
  store <4 x i32> %76, <4 x i32>* %21, align 16, !tbaa !7
  %77 = load <4 x i32>, <4 x i32>* %20, align 16, !tbaa !7
  %78 = load <4 x i32>, <4 x i32>* %21, align 16, !tbaa !7
  %79 = add <4 x i32> %77, %78
  store <4 x i32> %79, <4 x i32>* %22, align 16, !tbaa !7
  %80 = load <4 x i32>, <4 x i32>* %4, align 16, !tbaa !7
  %81 = load <4 x i32>, <4 x i32>* %5, align 16, !tbaa !7
  %82 = load <4 x i32>, <4 x i32>* %22, align 16, !tbaa !7
  %83 = mul <4 x i32> %81, %82
  %84 = sub <4 x i32> %80, %83
  store <4 x i32> %84, <4 x i32>* %23, align 16, !tbaa !7
  %85 = load <4 x i32>, <4 x i32>* %23, align 16, !tbaa !7
  %86 = load <4 x i32>, <4 x i32>* %5, align 16, !tbaa !7
  %87 = icmp uge <4 x i32> %85, %86
  %88 = zext <4 x i1> %87 to <4 x i16>
  %89 = trunc <4 x i16> %88 to <4 x i1>
  %90 = select <4 x i1> %89, <4 x i32> <i32 -1, i32 -1, i32 -1, i32 -1>, <4 x i32> zeroinitializer
  store <4 x i32> %90, <4 x i32>* %24, align 16, !tbaa !7
  %91 = load <4 x i32>, <4 x i32>* %24, align 16, !tbaa !7
  %92 = and <4 x i32> %91, <i32 1, i32 1, i32 1, i32 1>
  %93 = load <4 x i32>, <4 x i32>* %22, align 16, !tbaa !7
  %94 = add <4 x i32> %93, %92
  store <4 x i32> %94, <4 x i32>* %22, align 16, !tbaa !7
  %95 = load <4 x i32>, <4 x i32>* %5, align 16, !tbaa !7
  %96 = load <4 x i32>, <4 x i32>* %24, align 16, !tbaa !7
  %97 = and <4 x i32> %95, %96
  %98 = load <4 x i32>, <4 x i32>* %23, align 16, !tbaa !7
  %99 = sub <4 x i32> %98, %97
  store <4 x i32> %99, <4 x i32>* %23, align 16, !tbaa !7
  %100 = load <4 x i32>, <4 x i32>* %23, align 16, !tbaa !7
  call void @llvm.genx.vstore.v4i32.p0v4i32(<4 x i32> %100, <4 x i32>* %2)
  %101 = load <4 x i32>, <4 x i32>* %22, align 16, !tbaa !7
  ret <4 x i32> %101
}

; Function Attrs: noinline nounwind
define dso_local <8 x i32> @_Z24__cm_intrinsic_impl_udivu2CMvb8_jS_(<8 x i32>, <8 x i32>) #17 {
  %3 = alloca <8 x i32>, align 32
  %4 = alloca <8 x i32>, align 32
  %5 = alloca <8 x i32>, align 32
  %6 = alloca <8 x i32>, align 32
  store <8 x i32> %0, <8 x i32>* %3, align 32, !tbaa !7
  store <8 x i32> %1, <8 x i32>* %4, align 32, !tbaa !7
  %7 = load <8 x i32>, <8 x i32>* %3, align 32, !tbaa !7
  %8 = load <8 x i32>, <8 x i32>* %4, align 32, !tbaa !7
  %9 = call <8 x i32> @_ZN7details14__impl_udivremILi8EEEu2CMvbT__jS1_S1_u2CMvrT__j(<8 x i32> %7, <8 x i32> %8, <8 x i32>* %5)
  store <8 x i32> %9, <8 x i32>* %6, align 32, !tbaa !7
  %10 = load <8 x i32>, <8 x i32>* %6, align 32, !tbaa !7
  ret <8 x i32> %10
}

; Function Attrs: alwaysinline inlinehint nounwind
define internal <8 x i32> @_ZN7details14__impl_udivremILi8EEEu2CMvbT__jS1_S1_u2CMvrT__j(<8 x i32>, <8 x i32>, <8 x i32>*) #10 comdat {
  %4 = alloca <8 x i32>, align 32
  %5 = alloca <8 x i32>, align 32
  %6 = alloca <8 x i32>*, align 32
  %7 = alloca <8 x float>, align 32
  %8 = alloca <8 x float>, align 32
  %9 = alloca <8 x float>, align 32
  %10 = alloca <8 x float>, align 32
  %11 = alloca <8 x float>, align 32
  %12 = alloca <8 x float>, align 32
  %13 = alloca <8 x float>, align 32
  %14 = alloca <8 x float>, align 32
  %15 = alloca <8 x float>, align 32
  %16 = alloca <8 x i32>, align 32
  %17 = alloca <8 x i32>, align 32
  %18 = alloca <8 x i32>, align 32
  %19 = alloca <8 x i32>, align 32
  %20 = alloca <8 x i32>, align 32
  %21 = alloca <8 x i32>, align 32
  %22 = alloca <8 x i32>, align 32
  %23 = alloca <8 x i32>, align 32
  %24 = alloca <8 x i32>, align 32
  store <8 x i32> %0, <8 x i32>* %4, align 32, !tbaa !7
  store <8 x i32> %1, <8 x i32>* %5, align 32, !tbaa !7
  store <8 x i32>* %2, <8 x i32>** %6, align 32, !tbaa !7
  %25 = load <8 x i32>, <8 x i32>* %5, align 32, !tbaa !7
  %26 = uitofp <8 x i32> %25 to <8 x float>
  store <8 x float> %26, <8 x float>* %9, align 32, !tbaa !7
  %27 = load <8 x float>, <8 x float>* %9, align 32, !tbaa !7
  %28 = fptosi <8 x float> %27 to <8 x i32>
  store <8 x i32> %28, <8 x i32>* %17, align 32, !tbaa !7
  %29 = load <8 x i32>, <8 x i32>* %5, align 32, !tbaa !7
  %30 = load <8 x i32>, <8 x i32>* %17, align 32, !tbaa !7
  %31 = sub <8 x i32> %29, %30
  store <8 x i32> %31, <8 x i32>* %19, align 32, !tbaa !7
  %32 = load <8 x i32>, <8 x i32>* %19, align 32, !tbaa !7
  %33 = uitofp <8 x i32> %32 to <8 x float>
  store <8 x float> %33, <8 x float>* %10, align 32, !tbaa !7
  %34 = load <8 x i32>, <8 x i32>* %4, align 32, !tbaa !7
  %35 = uitofp <8 x i32> %34 to <8 x float>
  store <8 x float> %35, <8 x float>* %7, align 32, !tbaa !7
  %36 = load <8 x float>, <8 x float>* %7, align 32, !tbaa !7
  %37 = fptosi <8 x float> %36 to <8 x i32>
  store <8 x i32> %37, <8 x i32>* %16, align 32, !tbaa !7
  %38 = load <8 x i32>, <8 x i32>* %4, align 32, !tbaa !7
  %39 = load <8 x i32>, <8 x i32>* %16, align 32, !tbaa !7
  %40 = sub <8 x i32> %38, %39
  store <8 x i32> %40, <8 x i32>* %18, align 32, !tbaa !7
  %41 = load <8 x i32>, <8 x i32>* %18, align 32, !tbaa !7
  %42 = uitofp <8 x i32> %41 to <8 x float>
  store <8 x float> %42, <8 x float>* %8, align 32, !tbaa !7
  %43 = load <8 x float>, <8 x float>* %9, align 32, !tbaa !7
  %44 = fdiv <8 x float> <float 1.000000e+00, float 1.000000e+00, float 1.000000e+00, float 1.000000e+00, float 1.000000e+00, float 1.000000e+00, float 1.000000e+00, float 1.000000e+00>, %43
  store <8 x float> %44, <8 x float>* %11, align 32, !tbaa !7
  %45 = load <8 x float>, <8 x float>* %11, align 32, !tbaa !7
  %46 = call float @_ZN7details16__impl_hex2floatEj(i32 -1262485504)
  %47 = insertelement <8 x float> undef, float %46, i32 0
  %48 = shufflevector <8 x float> %47, <8 x float> undef, <8 x i32> zeroinitializer
  %49 = fmul <8 x float> %45, %48
  %50 = load <8 x float>, <8 x float>* %11, align 32, !tbaa !7
  %51 = fadd <8 x float> %50, %49
  store <8 x float> %51, <8 x float>* %11, align 32, !tbaa !7
  %52 = load <8 x float>, <8 x float>* %7, align 32, !tbaa !7
  %53 = load <8 x float>, <8 x float>* %11, align 32, !tbaa !7
  %54 = fmul <8 x float> %52, %53
  store <8 x float> %54, <8 x float>* %12, align 32, !tbaa !7
  %55 = load <8 x float>, <8 x float>* %12, align 32, !tbaa !7
  %56 = fptosi <8 x float> %55 to <8 x i32>
  store <8 x i32> %56, <8 x i32>* %20, align 32, !tbaa !7
  %57 = load <8 x i32>, <8 x i32>* %20, align 32, !tbaa !7
  %58 = uitofp <8 x i32> %57 to <8 x float>
  store <8 x float> %58, <8 x float>* %12, align 32, !tbaa !7
  %59 = load <8 x float>, <8 x float>* %7, align 32, !tbaa !7
  %60 = load <8 x float>, <8 x float>* %9, align 32, !tbaa !7
  %61 = load <8 x float>, <8 x float>* %12, align 32, !tbaa !7
  %62 = fmul <8 x float> %60, %61
  %63 = fsub <8 x float> %59, %62
  store <8 x float> %63, <8 x float>* %14, align 32, !tbaa !7
  %64 = load <8 x float>, <8 x float>* %8, align 32, !tbaa !7
  %65 = load <8 x float>, <8 x float>* %10, align 32, !tbaa !7
  %66 = load <8 x float>, <8 x float>* %12, align 32, !tbaa !7
  %67 = fmul <8 x float> %65, %66
  %68 = fsub <8 x float> %64, %67
  store <8 x float> %68, <8 x float>* %15, align 32, !tbaa !7
  %69 = load <8 x float>, <8 x float>* %14, align 32, !tbaa !7
  %70 = load <8 x float>, <8 x float>* %15, align 32, !tbaa !7
  %71 = fadd <8 x float> %69, %70
  store <8 x float> %71, <8 x float>* %15, align 32, !tbaa !7
  %72 = load <8 x float>, <8 x float>* %11, align 32, !tbaa !7
  %73 = load <8 x float>, <8 x float>* %15, align 32, !tbaa !7
  %74 = fmul <8 x float> %72, %73
  store <8 x float> %74, <8 x float>* %13, align 32, !tbaa !7
  %75 = load <8 x float>, <8 x float>* %13, align 32, !tbaa !7
  %76 = fptosi <8 x float> %75 to <8 x i32>
  store <8 x i32> %76, <8 x i32>* %21, align 32, !tbaa !7
  %77 = load <8 x i32>, <8 x i32>* %20, align 32, !tbaa !7
  %78 = load <8 x i32>, <8 x i32>* %21, align 32, !tbaa !7
  %79 = add <8 x i32> %77, %78
  store <8 x i32> %79, <8 x i32>* %22, align 32, !tbaa !7
  %80 = load <8 x i32>, <8 x i32>* %4, align 32, !tbaa !7
  %81 = load <8 x i32>, <8 x i32>* %5, align 32, !tbaa !7
  %82 = load <8 x i32>, <8 x i32>* %22, align 32, !tbaa !7
  %83 = mul <8 x i32> %81, %82
  %84 = sub <8 x i32> %80, %83
  store <8 x i32> %84, <8 x i32>* %23, align 32, !tbaa !7
  %85 = load <8 x i32>, <8 x i32>* %23, align 32, !tbaa !7
  %86 = load <8 x i32>, <8 x i32>* %5, align 32, !tbaa !7
  %87 = icmp uge <8 x i32> %85, %86
  %88 = zext <8 x i1> %87 to <8 x i16>
  %89 = trunc <8 x i16> %88 to <8 x i1>
  %90 = select <8 x i1> %89, <8 x i32> <i32 -1, i32 -1, i32 -1, i32 -1, i32 -1, i32 -1, i32 -1, i32 -1>, <8 x i32> zeroinitializer
  store <8 x i32> %90, <8 x i32>* %24, align 32, !tbaa !7
  %91 = load <8 x i32>, <8 x i32>* %24, align 32, !tbaa !7
  %92 = and <8 x i32> %91, <i32 1, i32 1, i32 1, i32 1, i32 1, i32 1, i32 1, i32 1>
  %93 = load <8 x i32>, <8 x i32>* %22, align 32, !tbaa !7
  %94 = add <8 x i32> %93, %92
  store <8 x i32> %94, <8 x i32>* %22, align 32, !tbaa !7
  %95 = load <8 x i32>, <8 x i32>* %5, align 32, !tbaa !7
  %96 = load <8 x i32>, <8 x i32>* %24, align 32, !tbaa !7
  %97 = and <8 x i32> %95, %96
  %98 = load <8 x i32>, <8 x i32>* %23, align 32, !tbaa !7
  %99 = sub <8 x i32> %98, %97
  store <8 x i32> %99, <8 x i32>* %23, align 32, !tbaa !7
  %100 = load <8 x i32>, <8 x i32>* %23, align 32, !tbaa !7
  call void @llvm.genx.vstore.v8i32.p0v8i32(<8 x i32> %100, <8 x i32>* %2)
  %101 = load <8 x i32>, <8 x i32>* %22, align 32, !tbaa !7
  ret <8 x i32> %101
}

; Function Attrs: noinline nounwind
define dso_local <16 x i32> @_Z24__cm_intrinsic_impl_udivu2CMvb16_jS_(<16 x i32>, <16 x i32>) #18 {
  %3 = alloca <16 x i32>, align 64
  %4 = alloca <16 x i32>, align 64
  %5 = alloca <16 x i32>, align 64
  %6 = alloca <16 x i32>, align 64
  store <16 x i32> %0, <16 x i32>* %3, align 64, !tbaa !7
  store <16 x i32> %1, <16 x i32>* %4, align 64, !tbaa !7
  %7 = load <16 x i32>, <16 x i32>* %3, align 64, !tbaa !7
  %8 = load <16 x i32>, <16 x i32>* %4, align 64, !tbaa !7
  %9 = call <16 x i32> @_ZN7details14__impl_udivremILi16EEEu2CMvbT__jS1_S1_u2CMvrT__j(<16 x i32> %7, <16 x i32> %8, <16 x i32>* %5)
  store <16 x i32> %9, <16 x i32>* %6, align 64, !tbaa !7
  %10 = load <16 x i32>, <16 x i32>* %6, align 64, !tbaa !7
  ret <16 x i32> %10
}

; Function Attrs: alwaysinline inlinehint nounwind
define internal <16 x i32> @_ZN7details14__impl_udivremILi16EEEu2CMvbT__jS1_S1_u2CMvrT__j(<16 x i32>, <16 x i32>, <16 x i32>*) #12 comdat {
  %4 = alloca <16 x i32>, align 64
  %5 = alloca <16 x i32>, align 64
  %6 = alloca <16 x i32>*, align 64
  %7 = alloca <16 x float>, align 64
  %8 = alloca <16 x float>, align 64
  %9 = alloca <16 x float>, align 64
  %10 = alloca <16 x float>, align 64
  %11 = alloca <16 x float>, align 64
  %12 = alloca <16 x float>, align 64
  %13 = alloca <16 x float>, align 64
  %14 = alloca <16 x float>, align 64
  %15 = alloca <16 x float>, align 64
  %16 = alloca <16 x i32>, align 64
  %17 = alloca <16 x i32>, align 64
  %18 = alloca <16 x i32>, align 64
  %19 = alloca <16 x i32>, align 64
  %20 = alloca <16 x i32>, align 64
  %21 = alloca <16 x i32>, align 64
  %22 = alloca <16 x i32>, align 64
  %23 = alloca <16 x i32>, align 64
  %24 = alloca <16 x i32>, align 64
  store <16 x i32> %0, <16 x i32>* %4, align 64, !tbaa !7
  store <16 x i32> %1, <16 x i32>* %5, align 64, !tbaa !7
  store <16 x i32>* %2, <16 x i32>** %6, align 64, !tbaa !7
  %25 = load <16 x i32>, <16 x i32>* %5, align 64, !tbaa !7
  %26 = uitofp <16 x i32> %25 to <16 x float>
  store <16 x float> %26, <16 x float>* %9, align 64, !tbaa !7
  %27 = load <16 x float>, <16 x float>* %9, align 64, !tbaa !7
  %28 = fptosi <16 x float> %27 to <16 x i32>
  store <16 x i32> %28, <16 x i32>* %17, align 64, !tbaa !7
  %29 = load <16 x i32>, <16 x i32>* %5, align 64, !tbaa !7
  %30 = load <16 x i32>, <16 x i32>* %17, align 64, !tbaa !7
  %31 = sub <16 x i32> %29, %30
  store <16 x i32> %31, <16 x i32>* %19, align 64, !tbaa !7
  %32 = load <16 x i32>, <16 x i32>* %19, align 64, !tbaa !7
  %33 = uitofp <16 x i32> %32 to <16 x float>
  store <16 x float> %33, <16 x float>* %10, align 64, !tbaa !7
  %34 = load <16 x i32>, <16 x i32>* %4, align 64, !tbaa !7
  %35 = uitofp <16 x i32> %34 to <16 x float>
  store <16 x float> %35, <16 x float>* %7, align 64, !tbaa !7
  %36 = load <16 x float>, <16 x float>* %7, align 64, !tbaa !7
  %37 = fptosi <16 x float> %36 to <16 x i32>
  store <16 x i32> %37, <16 x i32>* %16, align 64, !tbaa !7
  %38 = load <16 x i32>, <16 x i32>* %4, align 64, !tbaa !7
  %39 = load <16 x i32>, <16 x i32>* %16, align 64, !tbaa !7
  %40 = sub <16 x i32> %38, %39
  store <16 x i32> %40, <16 x i32>* %18, align 64, !tbaa !7
  %41 = load <16 x i32>, <16 x i32>* %18, align 64, !tbaa !7
  %42 = uitofp <16 x i32> %41 to <16 x float>
  store <16 x float> %42, <16 x float>* %8, align 64, !tbaa !7
  %43 = load <16 x float>, <16 x float>* %9, align 64, !tbaa !7
  %44 = fdiv <16 x float> <float 1.000000e+00, float 1.000000e+00, float 1.000000e+00, float 1.000000e+00, float 1.000000e+00, float 1.000000e+00, float 1.000000e+00, float 1.000000e+00, float 1.000000e+00, float 1.000000e+00, float 1.000000e+00, float 1.000000e+00, float 1.000000e+00, float 1.000000e+00, float 1.000000e+00, float 1.000000e+00>, %43
  store <16 x float> %44, <16 x float>* %11, align 64, !tbaa !7
  %45 = load <16 x float>, <16 x float>* %11, align 64, !tbaa !7
  %46 = call float @_ZN7details16__impl_hex2floatEj(i32 -1262485504)
  %47 = insertelement <16 x float> undef, float %46, i32 0
  %48 = shufflevector <16 x float> %47, <16 x float> undef, <16 x i32> zeroinitializer
  %49 = fmul <16 x float> %45, %48
  %50 = load <16 x float>, <16 x float>* %11, align 64, !tbaa !7
  %51 = fadd <16 x float> %50, %49
  store <16 x float> %51, <16 x float>* %11, align 64, !tbaa !7
  %52 = load <16 x float>, <16 x float>* %7, align 64, !tbaa !7
  %53 = load <16 x float>, <16 x float>* %11, align 64, !tbaa !7
  %54 = fmul <16 x float> %52, %53
  store <16 x float> %54, <16 x float>* %12, align 64, !tbaa !7
  %55 = load <16 x float>, <16 x float>* %12, align 64, !tbaa !7
  %56 = fptosi <16 x float> %55 to <16 x i32>
  store <16 x i32> %56, <16 x i32>* %20, align 64, !tbaa !7
  %57 = load <16 x i32>, <16 x i32>* %20, align 64, !tbaa !7
  %58 = uitofp <16 x i32> %57 to <16 x float>
  store <16 x float> %58, <16 x float>* %12, align 64, !tbaa !7
  %59 = load <16 x float>, <16 x float>* %7, align 64, !tbaa !7
  %60 = load <16 x float>, <16 x float>* %9, align 64, !tbaa !7
  %61 = load <16 x float>, <16 x float>* %12, align 64, !tbaa !7
  %62 = fmul <16 x float> %60, %61
  %63 = fsub <16 x float> %59, %62
  store <16 x float> %63, <16 x float>* %14, align 64, !tbaa !7
  %64 = load <16 x float>, <16 x float>* %8, align 64, !tbaa !7
  %65 = load <16 x float>, <16 x float>* %10, align 64, !tbaa !7
  %66 = load <16 x float>, <16 x float>* %12, align 64, !tbaa !7
  %67 = fmul <16 x float> %65, %66
  %68 = fsub <16 x float> %64, %67
  store <16 x float> %68, <16 x float>* %15, align 64, !tbaa !7
  %69 = load <16 x float>, <16 x float>* %14, align 64, !tbaa !7
  %70 = load <16 x float>, <16 x float>* %15, align 64, !tbaa !7
  %71 = fadd <16 x float> %69, %70
  store <16 x float> %71, <16 x float>* %15, align 64, !tbaa !7
  %72 = load <16 x float>, <16 x float>* %11, align 64, !tbaa !7
  %73 = load <16 x float>, <16 x float>* %15, align 64, !tbaa !7
  %74 = fmul <16 x float> %72, %73
  store <16 x float> %74, <16 x float>* %13, align 64, !tbaa !7
  %75 = load <16 x float>, <16 x float>* %13, align 64, !tbaa !7
  %76 = fptosi <16 x float> %75 to <16 x i32>
  store <16 x i32> %76, <16 x i32>* %21, align 64, !tbaa !7
  %77 = load <16 x i32>, <16 x i32>* %20, align 64, !tbaa !7
  %78 = load <16 x i32>, <16 x i32>* %21, align 64, !tbaa !7
  %79 = add <16 x i32> %77, %78
  store <16 x i32> %79, <16 x i32>* %22, align 64, !tbaa !7
  %80 = load <16 x i32>, <16 x i32>* %4, align 64, !tbaa !7
  %81 = load <16 x i32>, <16 x i32>* %5, align 64, !tbaa !7
  %82 = load <16 x i32>, <16 x i32>* %22, align 64, !tbaa !7
  %83 = mul <16 x i32> %81, %82
  %84 = sub <16 x i32> %80, %83
  store <16 x i32> %84, <16 x i32>* %23, align 64, !tbaa !7
  %85 = load <16 x i32>, <16 x i32>* %23, align 64, !tbaa !7
  %86 = load <16 x i32>, <16 x i32>* %5, align 64, !tbaa !7
  %87 = icmp uge <16 x i32> %85, %86
  %88 = zext <16 x i1> %87 to <16 x i16>
  %89 = trunc <16 x i16> %88 to <16 x i1>
  %90 = select <16 x i1> %89, <16 x i32> <i32 -1, i32 -1, i32 -1, i32 -1, i32 -1, i32 -1, i32 -1, i32 -1, i32 -1, i32 -1, i32 -1, i32 -1, i32 -1, i32 -1, i32 -1, i32 -1>, <16 x i32> zeroinitializer
  store <16 x i32> %90, <16 x i32>* %24, align 64, !tbaa !7
  %91 = load <16 x i32>, <16 x i32>* %24, align 64, !tbaa !7
  %92 = and <16 x i32> %91, <i32 1, i32 1, i32 1, i32 1, i32 1, i32 1, i32 1, i32 1, i32 1, i32 1, i32 1, i32 1, i32 1, i32 1, i32 1, i32 1>
  %93 = load <16 x i32>, <16 x i32>* %22, align 64, !tbaa !7
  %94 = add <16 x i32> %93, %92
  store <16 x i32> %94, <16 x i32>* %22, align 64, !tbaa !7
  %95 = load <16 x i32>, <16 x i32>* %5, align 64, !tbaa !7
  %96 = load <16 x i32>, <16 x i32>* %24, align 64, !tbaa !7
  %97 = and <16 x i32> %95, %96
  %98 = load <16 x i32>, <16 x i32>* %23, align 64, !tbaa !7
  %99 = sub <16 x i32> %98, %97
  store <16 x i32> %99, <16 x i32>* %23, align 64, !tbaa !7
  %100 = load <16 x i32>, <16 x i32>* %23, align 64, !tbaa !7
  call void @llvm.genx.vstore.v16i32.p0v16i32(<16 x i32> %100, <16 x i32>* %2)
  %101 = load <16 x i32>, <16 x i32>* %22, align 64, !tbaa !7
  ret <16 x i32> %101
}

; Function Attrs: noinline nounwind
define internal <32 x i32> @_Z24__cm_intrinsic_impl_udivu2CMvb32_jS_(<32 x i32>, <32 x i32>) #19 {
  %3 = alloca <32 x i32>, align 128
  %4 = alloca <32 x i32>, align 128
  %5 = alloca <32 x i32>, align 128
  %6 = alloca <32 x i32>, align 128
  store <32 x i32> %0, <32 x i32>* %3, align 128, !tbaa !7
  store <32 x i32> %1, <32 x i32>* %4, align 128, !tbaa !7
  %7 = load <32 x i32>, <32 x i32>* %3, align 128, !tbaa !7
  %8 = load <32 x i32>, <32 x i32>* %4, align 128, !tbaa !7
  %9 = call <32 x i32> @_ZN7details14__impl_udivremILi32EEEu2CMvbT__jS1_S1_u2CMvrT__j(<32 x i32> %7, <32 x i32> %8, <32 x i32>* %5)
  store <32 x i32> %9, <32 x i32>* %6, align 128, !tbaa !7
  %10 = load <32 x i32>, <32 x i32>* %6, align 128, !tbaa !7
  ret <32 x i32> %10
}

; Function Attrs: alwaysinline inlinehint nounwind
define internal <32 x i32> @_ZN7details14__impl_udivremILi32EEEu2CMvbT__jS1_S1_u2CMvrT__j(<32 x i32>, <32 x i32>, <32 x i32>*) #20 comdat {
  %4 = alloca <32 x i32>, align 128
  %5 = alloca <32 x i32>, align 128
  %6 = alloca <32 x i32>*, align 128
  %7 = alloca <32 x float>, align 128
  %8 = alloca <32 x float>, align 128
  %9 = alloca <32 x float>, align 128
  %10 = alloca <32 x float>, align 128
  %11 = alloca <32 x float>, align 128
  %12 = alloca <32 x float>, align 128
  %13 = alloca <32 x float>, align 128
  %14 = alloca <32 x float>, align 128
  %15 = alloca <32 x float>, align 128
  %16 = alloca <32 x i32>, align 128
  %17 = alloca <32 x i32>, align 128
  %18 = alloca <32 x i32>, align 128
  %19 = alloca <32 x i32>, align 128
  %20 = alloca <32 x i32>, align 128
  %21 = alloca <32 x i32>, align 128
  %22 = alloca <32 x i32>, align 128
  %23 = alloca <32 x i32>, align 128
  %24 = alloca <32 x i32>, align 128
  store <32 x i32> %0, <32 x i32>* %4, align 128, !tbaa !7
  store <32 x i32> %1, <32 x i32>* %5, align 128, !tbaa !7
  store <32 x i32>* %2, <32 x i32>** %6, align 128, !tbaa !7
  %25 = load <32 x i32>, <32 x i32>* %5, align 128, !tbaa !7
  %26 = uitofp <32 x i32> %25 to <32 x float>
  store <32 x float> %26, <32 x float>* %9, align 128, !tbaa !7
  %27 = load <32 x float>, <32 x float>* %9, align 128, !tbaa !7
  %28 = fptosi <32 x float> %27 to <32 x i32>
  store <32 x i32> %28, <32 x i32>* %17, align 128, !tbaa !7
  %29 = load <32 x i32>, <32 x i32>* %5, align 128, !tbaa !7
  %30 = load <32 x i32>, <32 x i32>* %17, align 128, !tbaa !7
  %31 = sub <32 x i32> %29, %30
  store <32 x i32> %31, <32 x i32>* %19, align 128, !tbaa !7
  %32 = load <32 x i32>, <32 x i32>* %19, align 128, !tbaa !7
  %33 = uitofp <32 x i32> %32 to <32 x float>
  store <32 x float> %33, <32 x float>* %10, align 128, !tbaa !7
  %34 = load <32 x i32>, <32 x i32>* %4, align 128, !tbaa !7
  %35 = uitofp <32 x i32> %34 to <32 x float>
  store <32 x float> %35, <32 x float>* %7, align 128, !tbaa !7
  %36 = load <32 x float>, <32 x float>* %7, align 128, !tbaa !7
  %37 = fptosi <32 x float> %36 to <32 x i32>
  store <32 x i32> %37, <32 x i32>* %16, align 128, !tbaa !7
  %38 = load <32 x i32>, <32 x i32>* %4, align 128, !tbaa !7
  %39 = load <32 x i32>, <32 x i32>* %16, align 128, !tbaa !7
  %40 = sub <32 x i32> %38, %39
  store <32 x i32> %40, <32 x i32>* %18, align 128, !tbaa !7
  %41 = load <32 x i32>, <32 x i32>* %18, align 128, !tbaa !7
  %42 = uitofp <32 x i32> %41 to <32 x float>
  store <32 x float> %42, <32 x float>* %8, align 128, !tbaa !7
  %43 = load <32 x float>, <32 x float>* %9, align 128, !tbaa !7
  %44 = fdiv <32 x float> <float 1.000000e+00, float 1.000000e+00, float 1.000000e+00, float 1.000000e+00, float 1.000000e+00, float 1.000000e+00, float 1.000000e+00, float 1.000000e+00, float 1.000000e+00, float 1.000000e+00, float 1.000000e+00, float 1.000000e+00, float 1.000000e+00, float 1.000000e+00, float 1.000000e+00, float 1.000000e+00, float 1.000000e+00, float 1.000000e+00, float 1.000000e+00, float 1.000000e+00, float 1.000000e+00, float 1.000000e+00, float 1.000000e+00, float 1.000000e+00, float 1.000000e+00, float 1.000000e+00, float 1.000000e+00, float 1.000000e+00, float 1.000000e+00, float 1.000000e+00, float 1.000000e+00, float 1.000000e+00>, %43
  store <32 x float> %44, <32 x float>* %11, align 128, !tbaa !7
  %45 = load <32 x float>, <32 x float>* %11, align 128, !tbaa !7
  %46 = call float @_ZN7details16__impl_hex2floatEj(i32 -1262485504)
  %47 = insertelement <32 x float> undef, float %46, i32 0
  %48 = shufflevector <32 x float> %47, <32 x float> undef, <32 x i32> zeroinitializer
  %49 = fmul <32 x float> %45, %48
  %50 = load <32 x float>, <32 x float>* %11, align 128, !tbaa !7
  %51 = fadd <32 x float> %50, %49
  store <32 x float> %51, <32 x float>* %11, align 128, !tbaa !7
  %52 = load <32 x float>, <32 x float>* %7, align 128, !tbaa !7
  %53 = load <32 x float>, <32 x float>* %11, align 128, !tbaa !7
  %54 = fmul <32 x float> %52, %53
  store <32 x float> %54, <32 x float>* %12, align 128, !tbaa !7
  %55 = load <32 x float>, <32 x float>* %12, align 128, !tbaa !7
  %56 = fptosi <32 x float> %55 to <32 x i32>
  store <32 x i32> %56, <32 x i32>* %20, align 128, !tbaa !7
  %57 = load <32 x i32>, <32 x i32>* %20, align 128, !tbaa !7
  %58 = uitofp <32 x i32> %57 to <32 x float>
  store <32 x float> %58, <32 x float>* %12, align 128, !tbaa !7
  %59 = load <32 x float>, <32 x float>* %7, align 128, !tbaa !7
  %60 = load <32 x float>, <32 x float>* %9, align 128, !tbaa !7
  %61 = load <32 x float>, <32 x float>* %12, align 128, !tbaa !7
  %62 = fmul <32 x float> %60, %61
  %63 = fsub <32 x float> %59, %62
  store <32 x float> %63, <32 x float>* %14, align 128, !tbaa !7
  %64 = load <32 x float>, <32 x float>* %8, align 128, !tbaa !7
  %65 = load <32 x float>, <32 x float>* %10, align 128, !tbaa !7
  %66 = load <32 x float>, <32 x float>* %12, align 128, !tbaa !7
  %67 = fmul <32 x float> %65, %66
  %68 = fsub <32 x float> %64, %67
  store <32 x float> %68, <32 x float>* %15, align 128, !tbaa !7
  %69 = load <32 x float>, <32 x float>* %14, align 128, !tbaa !7
  %70 = load <32 x float>, <32 x float>* %15, align 128, !tbaa !7
  %71 = fadd <32 x float> %69, %70
  store <32 x float> %71, <32 x float>* %15, align 128, !tbaa !7
  %72 = load <32 x float>, <32 x float>* %11, align 128, !tbaa !7
  %73 = load <32 x float>, <32 x float>* %15, align 128, !tbaa !7
  %74 = fmul <32 x float> %72, %73
  store <32 x float> %74, <32 x float>* %13, align 128, !tbaa !7
  %75 = load <32 x float>, <32 x float>* %13, align 128, !tbaa !7
  %76 = fptosi <32 x float> %75 to <32 x i32>
  store <32 x i32> %76, <32 x i32>* %21, align 128, !tbaa !7
  %77 = load <32 x i32>, <32 x i32>* %20, align 128, !tbaa !7
  %78 = load <32 x i32>, <32 x i32>* %21, align 128, !tbaa !7
  %79 = add <32 x i32> %77, %78
  store <32 x i32> %79, <32 x i32>* %22, align 128, !tbaa !7
  %80 = load <32 x i32>, <32 x i32>* %4, align 128, !tbaa !7
  %81 = load <32 x i32>, <32 x i32>* %5, align 128, !tbaa !7
  %82 = load <32 x i32>, <32 x i32>* %22, align 128, !tbaa !7
  %83 = mul <32 x i32> %81, %82
  %84 = sub <32 x i32> %80, %83
  store <32 x i32> %84, <32 x i32>* %23, align 128, !tbaa !7
  %85 = load <32 x i32>, <32 x i32>* %23, align 128, !tbaa !7
  %86 = load <32 x i32>, <32 x i32>* %5, align 128, !tbaa !7
  %87 = icmp uge <32 x i32> %85, %86
  %88 = zext <32 x i1> %87 to <32 x i16>
  %89 = trunc <32 x i16> %88 to <32 x i1>
  %90 = select <32 x i1> %89, <32 x i32> <i32 -1, i32 -1, i32 -1, i32 -1, i32 -1, i32 -1, i32 -1, i32 -1, i32 -1, i32 -1, i32 -1, i32 -1, i32 -1, i32 -1, i32 -1, i32 -1, i32 -1, i32 -1, i32 -1, i32 -1, i32 -1, i32 -1, i32 -1, i32 -1, i32 -1, i32 -1, i32 -1, i32 -1, i32 -1, i32 -1, i32 -1, i32 -1>, <32 x i32> zeroinitializer
  store <32 x i32> %90, <32 x i32>* %24, align 128, !tbaa !7
  %91 = load <32 x i32>, <32 x i32>* %24, align 128, !tbaa !7
  %92 = and <32 x i32> %91, <i32 1, i32 1, i32 1, i32 1, i32 1, i32 1, i32 1, i32 1, i32 1, i32 1, i32 1, i32 1, i32 1, i32 1, i32 1, i32 1, i32 1, i32 1, i32 1, i32 1, i32 1, i32 1, i32 1, i32 1, i32 1, i32 1, i32 1, i32 1, i32 1, i32 1, i32 1, i32 1>
  %93 = load <32 x i32>, <32 x i32>* %22, align 128, !tbaa !7
  %94 = add <32 x i32> %93, %92
  store <32 x i32> %94, <32 x i32>* %22, align 128, !tbaa !7
  %95 = load <32 x i32>, <32 x i32>* %5, align 128, !tbaa !7
  %96 = load <32 x i32>, <32 x i32>* %24, align 128, !tbaa !7
  %97 = and <32 x i32> %95, %96
  %98 = load <32 x i32>, <32 x i32>* %23, align 128, !tbaa !7
  %99 = sub <32 x i32> %98, %97
  store <32 x i32> %99, <32 x i32>* %23, align 128, !tbaa !7
  %100 = load <32 x i32>, <32 x i32>* %23, align 128, !tbaa !7
  call void @llvm.genx.vstore.v32i32.p0v32i32(<32 x i32> %100, <32 x i32>* %2)
  %101 = load <32 x i32>, <32 x i32>* %22, align 128, !tbaa !7
  ret <32 x i32> %101
}

; Function Attrs: noinline nounwind
define internal i32 @_Z24__cm_intrinsic_impl_uremjj(i32, i32) #14 {
  %3 = alloca i32, align 4
  %4 = alloca i32, align 4
  %5 = alloca <1 x i32>, align 4
  %6 = alloca <1 x i32>, align 4
  %7 = alloca <1 x i32>, align 4
  store i32 %0, i32* %3, align 4, !tbaa !13
  store i32 %1, i32* %4, align 4, !tbaa !13
  %8 = load i32, i32* %3, align 4, !tbaa !13
  %9 = insertelement <1 x i32> undef, i32 %8, i32 0
  %10 = shufflevector <1 x i32> %9, <1 x i32> undef, <1 x i32> zeroinitializer
  store <1 x i32> %10, <1 x i32>* %5, align 4, !tbaa !7
  %11 = load i32, i32* %4, align 4, !tbaa !13
  %12 = insertelement <1 x i32> undef, i32 %11, i32 0
  %13 = shufflevector <1 x i32> %12, <1 x i32> undef, <1 x i32> zeroinitializer
  store <1 x i32> %13, <1 x i32>* %6, align 4, !tbaa !7
  %14 = load <1 x i32>, <1 x i32>* %5, align 4, !tbaa !7
  %15 = load <1 x i32>, <1 x i32>* %6, align 4, !tbaa !7
  %16 = call <1 x i32> @_ZN7details14__impl_udivremILi1EEEu2CMvbT__jS1_S1_u2CMvrT__j(<1 x i32> %14, <1 x i32> %15, <1 x i32>* %7)
  %17 = load <1 x i32>, <1 x i32>* %7, align 4, !tbaa !7
  %18 = call <1 x i32> @llvm.genx.rdregioni.v1i32.v1i32.i16(<1 x i32> %17, i32 0, i32 1, i32 0, i16 0, i32 undef)
  %19 = extractelement <1 x i32> %18, i32 0
  ret i32 %19
}

; Function Attrs: noinline nounwind
define internal <1 x i32> @_Z24__cm_intrinsic_impl_uremu2CMvb1_jS_(<1 x i32>, <1 x i32>) #14 {
  %3 = alloca <1 x i32>, align 4
  %4 = alloca <1 x i32>, align 4
  %5 = alloca <1 x i32>, align 4
  store <1 x i32> %0, <1 x i32>* %3, align 4, !tbaa !7
  store <1 x i32> %1, <1 x i32>* %4, align 4, !tbaa !7
  %6 = load <1 x i32>, <1 x i32>* %3, align 4, !tbaa !7
  %7 = load <1 x i32>, <1 x i32>* %4, align 4, !tbaa !7
  %8 = call <1 x i32> @_ZN7details14__impl_udivremILi1EEEu2CMvbT__jS1_S1_u2CMvrT__j(<1 x i32> %6, <1 x i32> %7, <1 x i32>* %5)
  %9 = load <1 x i32>, <1 x i32>* %5, align 4, !tbaa !7
  ret <1 x i32> %9
}

; Function Attrs: noinline nounwind
define internal <2 x i32> @_Z24__cm_intrinsic_impl_uremu2CMvb2_jS_(<2 x i32>, <2 x i32>) #15 {
  %3 = alloca <2 x i32>, align 8
  %4 = alloca <2 x i32>, align 8
  %5 = alloca <2 x i32>, align 8
  store <2 x i32> %0, <2 x i32>* %3, align 8, !tbaa !7
  store <2 x i32> %1, <2 x i32>* %4, align 8, !tbaa !7
  %6 = load <2 x i32>, <2 x i32>* %3, align 8, !tbaa !7
  %7 = load <2 x i32>, <2 x i32>* %4, align 8, !tbaa !7
  %8 = call <2 x i32> @_ZN7details14__impl_udivremILi2EEEu2CMvbT__jS1_S1_u2CMvrT__j(<2 x i32> %6, <2 x i32> %7, <2 x i32>* %5)
  %9 = load <2 x i32>, <2 x i32>* %5, align 8, !tbaa !7
  ret <2 x i32> %9
}

; Function Attrs: noinline nounwind
define internal <4 x i32> @_Z24__cm_intrinsic_impl_uremu2CMvb4_jS_(<4 x i32>, <4 x i32>) #16 {
  %3 = alloca <4 x i32>, align 16
  %4 = alloca <4 x i32>, align 16
  %5 = alloca <4 x i32>, align 16
  store <4 x i32> %0, <4 x i32>* %3, align 16, !tbaa !7
  store <4 x i32> %1, <4 x i32>* %4, align 16, !tbaa !7
  %6 = load <4 x i32>, <4 x i32>* %3, align 16, !tbaa !7
  %7 = load <4 x i32>, <4 x i32>* %4, align 16, !tbaa !7
  %8 = call <4 x i32> @_ZN7details14__impl_udivremILi4EEEu2CMvbT__jS1_S1_u2CMvrT__j(<4 x i32> %6, <4 x i32> %7, <4 x i32>* %5)
  %9 = load <4 x i32>, <4 x i32>* %5, align 16, !tbaa !7
  ret <4 x i32> %9
}

; Function Attrs: noinline nounwind
define internal <8 x i32> @_Z24__cm_intrinsic_impl_uremu2CMvb8_jS_(<8 x i32>, <8 x i32>) #17 {
  %3 = alloca <8 x i32>, align 32
  %4 = alloca <8 x i32>, align 32
  %5 = alloca <8 x i32>, align 32
  store <8 x i32> %0, <8 x i32>* %3, align 32, !tbaa !7
  store <8 x i32> %1, <8 x i32>* %4, align 32, !tbaa !7
  %6 = load <8 x i32>, <8 x i32>* %3, align 32, !tbaa !7
  %7 = load <8 x i32>, <8 x i32>* %4, align 32, !tbaa !7
  %8 = call <8 x i32> @_ZN7details14__impl_udivremILi8EEEu2CMvbT__jS1_S1_u2CMvrT__j(<8 x i32> %6, <8 x i32> %7, <8 x i32>* %5)
  %9 = load <8 x i32>, <8 x i32>* %5, align 32, !tbaa !7
  ret <8 x i32> %9
}

; Function Attrs: noinline nounwind
define internal <16 x i32> @_Z24__cm_intrinsic_impl_uremu2CMvb16_jS_(<16 x i32>, <16 x i32>) #18 {
  %3 = alloca <16 x i32>, align 64
  %4 = alloca <16 x i32>, align 64
  %5 = alloca <16 x i32>, align 64
  store <16 x i32> %0, <16 x i32>* %3, align 64, !tbaa !7
  store <16 x i32> %1, <16 x i32>* %4, align 64, !tbaa !7
  %6 = load <16 x i32>, <16 x i32>* %3, align 64, !tbaa !7
  %7 = load <16 x i32>, <16 x i32>* %4, align 64, !tbaa !7
  %8 = call <16 x i32> @_ZN7details14__impl_udivremILi16EEEu2CMvbT__jS1_S1_u2CMvrT__j(<16 x i32> %6, <16 x i32> %7, <16 x i32>* %5)
  %9 = load <16 x i32>, <16 x i32>* %5, align 64, !tbaa !7
  ret <16 x i32> %9
}

; Function Attrs: noinline nounwind
define internal <32 x i32> @_Z24__cm_intrinsic_impl_uremu2CMvb32_jS_(<32 x i32>, <32 x i32>) #19 {
  %3 = alloca <32 x i32>, align 128
  %4 = alloca <32 x i32>, align 128
  %5 = alloca <32 x i32>, align 128
  store <32 x i32> %0, <32 x i32>* %3, align 128, !tbaa !7
  store <32 x i32> %1, <32 x i32>* %4, align 128, !tbaa !7
  %6 = load <32 x i32>, <32 x i32>* %3, align 128, !tbaa !7
  %7 = load <32 x i32>, <32 x i32>* %4, align 128, !tbaa !7
  %8 = call <32 x i32> @_ZN7details14__impl_udivremILi32EEEu2CMvbT__jS1_S1_u2CMvrT__j(<32 x i32> %6, <32 x i32> %7, <32 x i32>* %5)
  %9 = load <32 x i32>, <32 x i32>* %5, align 128, !tbaa !7
  ret <32 x i32> %9
}

; Function Attrs: noinline nounwind
define internal void @__do_print_cm(i8*, i8*, i32, i64, i32*, i32, i32) #23 !dbg !15 {
  %8 = alloca i8*, align 4
  %9 = alloca i8*, align 4
  %10 = alloca i32, align 4
  %11 = alloca i64, align 8
  %12 = alloca i32*, align 4
  %13 = alloca i32, align 4
  %14 = alloca i32, align 4
  %15 = alloca i32, align 4
  %16 = alloca i32, align 4
  %17 = alloca i32, align 4
  %18 = alloca i32, align 4
  %19 = alloca %class.ArgWriter, align 8
  %20 = alloca <128 x i8>, align 128
  store i8* %0, i8** %8, align 4, !tbaa !17
  store i8* %1, i8** %9, align 4, !tbaa !17
  store i32 %2, i32* %10, align 4, !tbaa !13
  store i64 %3, i64* %11, align 8, !tbaa !19
  store i32* %4, i32** %12, align 4, !tbaa !17
  store i32 %5, i32* %13, align 4, !tbaa !13
  store i32 %6, i32* %14, align 4, !tbaa !13
  %21 = load i32, i32* %13, align 4, !dbg !21, !tbaa !13
  %22 = load i32, i32* %14, align 4, !dbg !22, !tbaa !13
  %23 = load i32, i32* %10, align 4, !dbg !23, !tbaa !13
  %24 = mul nsw i32 %22, %23, !dbg !24
  %25 = add nsw i32 %21, %24, !dbg !25
  %26 = mul nsw i32 %25, 32, !dbg !26
  %27 = add nsw i32 160, %26, !dbg !27
  store i32 %27, i32* %15, align 4, !dbg !28, !tbaa !13
  %28 = call i32 @llvm.genx.predefined.surface(i32 2), !dbg !29
  store i32 %28, i32* %16, align 4, !dbg !30, !tbaa !31
  %29 = load i32, i32* %16, align 4, !dbg !33, !tbaa !31
  %30 = load i32, i32* %15, align 4, !dbg !34, !tbaa !13
  %31 = call i32 @_ZN7details21_cm_print_init_offsetE15cm_surfaceindexj(i32 %29, i32 %30), !dbg !35
  store i32 %31, i32* %17, align 4, !dbg !36, !tbaa !13
  %32 = load i32, i32* %17, align 4, !dbg !37, !tbaa !13
  %33 = add i32 %32, 128, !dbg !38
  %34 = add i32 %33, 32, !dbg !39
  store i32 %34, i32* %18, align 4, !dbg !40, !tbaa !13
  %35 = load i32, i32* %18, align 4, !dbg !41, !tbaa !13
  %36 = load i32*, i32** %12, align 4, !dbg !42, !tbaa !17
  %37 = load i32, i32* %10, align 4, !dbg !43, !tbaa !13
  %38 = load i64, i64* %11, align 8, !dbg !44, !tbaa !19
  call void @_ZN9ArgWriterC2EjPKjiy(%class.ArgWriter* %19, i32 %35, i32* %36, i32 %37, i64 %38), !dbg !45
  %39 = load i8*, i8** %8, align 4, !dbg !46, !tbaa !17
  %40 = load i8*, i8** %9, align 4, !dbg !47, !tbaa !17
  %41 = call <128 x i8> @_Z14GetFormatedStrI9ArgWriterEu2CMvb128_cPKcS3_RT_(i8* %39, i8* %40, %class.ArgWriter* dereferenceable(24) %19), !dbg !48
  store <128 x i8> %41, <128 x i8>* %20, align 128, !dbg !49, !tbaa !7
  %42 = load i32, i32* %16, align 4, !dbg !50, !tbaa !31
  %43 = load i32, i32* %17, align 4, !dbg !51, !tbaa !13
  %44 = load <128 x i8>, <128 x i8>* %20, align 128, !dbg !52, !tbaa !7
  call void @_ZN7details16_cm_print_formatILi128EEEv15cm_surfaceindexju2CMvbT__c(i32 %42, i32 %43, <128 x i8> %44), !dbg !53
  ret void, !dbg !54
}

declare dso_local i32 @_ZN7details38__cm_intrinsic_impl_predefined_surfaceEj(i32) #24

; Function Attrs: nounwind readnone
declare i32 @llvm.genx.predefined.surface(i32) #2

; Function Attrs: alwaysinline inlinehint nounwind
define internal i32 @_ZN7details21_cm_print_init_offsetE15cm_surfaceindexj(i32, i32) #10 comdat {
  %3 = alloca i32, align 4
  %4 = alloca i32, align 4
  %5 = alloca <8 x i32>, align 32
  %6 = alloca <8 x i32>, align 32
  %7 = alloca <8 x i32>, align 32
  store i32 %0, i32* %3, align 4, !tbaa !31
  store i32 %1, i32* %4, align 4, !tbaa !13
  store <8 x i32> <i32 0, i32 4, i32 8, i32 12, i32 16, i32 20, i32 24, i32 28>, <8 x i32>* %5, align 32, !tbaa !7
  store <8 x i32> zeroinitializer, <8 x i32>* %6, align 32, !tbaa !7
  %8 = load i32, i32* %4, align 4, !tbaa !13
  %9 = load <8 x i32>, <8 x i32>* %6, align 32, !tbaa !7
  %10 = insertelement <1 x i32> undef, i32 %8, i32 0
  %11 = call <8 x i32> @llvm.genx.wrregioni.v8i32.v1i32.i16.i1(<8 x i32> %9, <1 x i32> %10, i32 0, i32 1, i32 0, i16 0, i32 undef, i1 true)
  store <8 x i32> %11, <8 x i32>* %6, align 32, !tbaa !7
  store <8 x i32> zeroinitializer, <8 x i32>* %7, align 32, !tbaa !7
  %12 = load i32, i32* %3, align 4, !tbaa !31
  %13 = load <8 x i32>, <8 x i32>* %5, align 32, !tbaa !7
  %14 = load <8 x i32>, <8 x i32>* %6, align 32, !tbaa !7
  call void @_Z12write_atomicIL14CmAtomicOpType0EjLi8EENSt9enable_ifIXaaaaaaaaaaneT_LS0_7EneT_LS0_18EneT_LS0_2EneT_LS0_3EneT_LS0_255EclL_ZN7detailsL10isPowerOf2EjjET1_Li32EEEvE4typeE15cm_surfaceindexu2CMvbT1__ju2CMvbT1__T0_u2CMvrT1__S6_(i32 %12, <8 x i32> %13, <8 x i32> %14, <8 x i32>* %7)
  %15 = load <8 x i32>, <8 x i32>* %7, align 32, !tbaa !7
  %16 = call <1 x i32> @llvm.genx.rdregioni.v1i32.v8i32.i16(<8 x i32> %15, i32 0, i32 1, i32 0, i16 0, i32 undef)
  %17 = extractelement <1 x i32> %16, i32 0
  ret i32 %17
}

; Function Attrs: alwaysinline inlinehint nounwind
define internal void @_ZN9ArgWriterC2EjPKjiy(%class.ArgWriter*, i32, i32*, i32, i64) unnamed_addr #25 comdat align 2 !dbg !56 {
  %6 = alloca %class.ArgWriter*, align 4
  %7 = alloca i32, align 4
  %8 = alloca i32*, align 4
  %9 = alloca i32, align 4
  %10 = alloca i64, align 8
  store %class.ArgWriter* %0, %class.ArgWriter** %6, align 4, !tbaa !17
  store i32 %1, i32* %7, align 4, !tbaa !13
  store i32* %2, i32** %8, align 4, !tbaa !17
  store i32 %3, i32* %9, align 4, !tbaa !13
  store i64 %4, i64* %10, align 8, !tbaa !19
  %11 = load %class.ArgWriter*, %class.ArgWriter** %6, align 4
  %12 = getelementptr inbounds %class.ArgWriter, %class.ArgWriter* %11, i32 0, i32 0, !dbg !57
  %13 = load i32, i32* %7, align 4, !dbg !58, !tbaa !13
  store i32 %13, i32* %12, align 8, !dbg !57, !tbaa !59
  %14 = getelementptr inbounds %class.ArgWriter, %class.ArgWriter* %11, i32 0, i32 1, !dbg !61
  %15 = load i32*, i32** %8, align 4, !dbg !62, !tbaa !17
  store i32* %15, i32** %14, align 4, !dbg !61, !tbaa !63
  %16 = getelementptr inbounds %class.ArgWriter, %class.ArgWriter* %11, i32 0, i32 2, !dbg !64
  store i32 0, i32* %16, align 8, !dbg !64, !tbaa !65
  %17 = getelementptr inbounds %class.ArgWriter, %class.ArgWriter* %11, i32 0, i32 3, !dbg !66
  %18 = load i32, i32* %9, align 4, !dbg !67, !tbaa !13
  store i32 %18, i32* %17, align 4, !dbg !66, !tbaa !68
  %19 = getelementptr inbounds %class.ArgWriter, %class.ArgWriter* %11, i32 0, i32 4, !dbg !69
  %20 = load i64, i64* %10, align 8, !dbg !70, !tbaa !19
  store i64 %20, i64* %19, align 8, !dbg !69, !tbaa !71
  ret void, !dbg !72
}

; Function Attrs: alwaysinline inlinehint nounwind
define internal <128 x i8> @_Z14GetFormatedStrI9ArgWriterEu2CMvb128_cPKcS3_RT_(i8*, i8*, %class.ArgWriter* dereferenceable(24)) #20 comdat !dbg !73 {
  %4 = alloca i8*, align 4
  %5 = alloca i8*, align 4
  %6 = alloca %class.ArgWriter*, align 4
  %7 = alloca <128 x i8>, align 128
  %8 = alloca i32, align 4
  %9 = alloca i32, align 4
  %10 = alloca i32, align 4
  %11 = alloca <100 x i8>, align 128
  store i8* %0, i8** %4, align 4, !tbaa !17
  store i8* %1, i8** %5, align 4, !tbaa !17
  store %class.ArgWriter* %2, %class.ArgWriter** %6, align 4, !tbaa !17
  store i32 0, i32* %8, align 4, !dbg !75, !tbaa !13
  store i32 127, i32* %9, align 4, !dbg !76, !tbaa !13
  br label %12, !dbg !77

; <label>:12:                                     ; preds = %48, %3
  %13 = load i8*, i8** %4, align 4, !dbg !78, !tbaa !17
  %14 = load i32, i32* %8, align 4, !dbg !79, !tbaa !13
  %15 = load i32, i32* %9, align 4, !dbg !80, !tbaa !13
  %16 = call i32 @_Z13CopyPlainTextILj128EEiPKcu2CMvrT__cii(i8* %13, <128 x i8>* %7, i32 %14, i32 %15), !dbg !81
  store i32 %16, i32* %10, align 4, !dbg !82, !tbaa !13
  %17 = load i32, i32* %10, align 4, !dbg !83, !tbaa !13
  %18 = load i8*, i8** %4, align 4, !dbg !84, !tbaa !17
  %19 = getelementptr inbounds i8, i8* %18, i32 %17, !dbg !84
  store i8* %19, i8** %4, align 4, !dbg !84, !tbaa !17
  %20 = load i32, i32* %10, align 4, !dbg !85, !tbaa !13
  %21 = load i32, i32* %8, align 4, !dbg !86, !tbaa !13
  %22 = add nsw i32 %21, %20, !dbg !86
  store i32 %22, i32* %8, align 4, !dbg !86, !tbaa !13
  %23 = load i32, i32* %10, align 4, !dbg !87, !tbaa !13
  %24 = load i32, i32* %9, align 4, !dbg !88, !tbaa !13
  %25 = sub nsw i32 %24, %23, !dbg !88
  store i32 %25, i32* %9, align 4, !dbg !88, !tbaa !13
  %26 = load i32, i32* %9, align 4, !dbg !89, !tbaa !13
  %27 = icmp ne i32 %26, 0, !dbg !89
  br i1 %27, label %28, label %33, !dbg !90

; <label>:28:                                     ; preds = %12
  %29 = load i8*, i8** %4, align 4, !dbg !91, !tbaa !17
  %30 = load i8, i8* %29, align 1, !dbg !92, !tbaa !7
  %31 = sext i8 %30 to i32, !dbg !92
  %32 = icmp eq i32 %31, 0, !dbg !93
  br i1 %32, label %33, label %34, !dbg !94

; <label>:33:                                     ; preds = %28, %12
  br label %53, !dbg !95

; <label>:34:                                     ; preds = %28
  %35 = load i8*, i8** %5, align 4, !dbg !96, !tbaa !17
  %36 = load i8, i8* %35, align 1, !dbg !97, !tbaa !7
  %37 = load %class.ArgWriter*, %class.ArgWriter** %6, align 4, !dbg !98, !tbaa !17
  %38 = call <100 x i8> @_ZN7details7Arg2StrI9ArgWriterEEu2CMvb100_ccRT_(i8 signext %36, %class.ArgWriter* dereferenceable(24) %37), !dbg !99
  store <100 x i8> %38, <100 x i8>* %11, align 128, !dbg !100, !tbaa !7
  %39 = load i32, i32* %8, align 4, !dbg !101, !tbaa !13
  %40 = load i32, i32* %9, align 4, !dbg !102, !tbaa !13
  %41 = call i32 @_Z12CopyFullTextILj100ELj128EEiu2CMvrT__ciu2CMvrT0__cii(<100 x i8>* %11, i32 0, <128 x i8>* %7, i32 %39, i32 %40), !dbg !103
  store i32 %41, i32* %10, align 4, !dbg !104, !tbaa !13
  %42 = load i32, i32* %10, align 4, !dbg !105, !tbaa !13
  %43 = load i32, i32* %8, align 4, !dbg !106, !tbaa !13
  %44 = add nsw i32 %43, %42, !dbg !106
  store i32 %44, i32* %8, align 4, !dbg !106, !tbaa !13
  %45 = load i32, i32* %10, align 4, !dbg !107, !tbaa !13
  %46 = load i32, i32* %9, align 4, !dbg !108, !tbaa !13
  %47 = sub nsw i32 %46, %45, !dbg !108
  store i32 %47, i32* %9, align 4, !dbg !108, !tbaa !13
  br label %48, !dbg !109

; <label>:48:                                     ; preds = %34
  %49 = load i8*, i8** %4, align 4, !dbg !110, !tbaa !17
  %50 = getelementptr inbounds i8, i8* %49, i32 1, !dbg !110
  store i8* %50, i8** %4, align 4, !dbg !110, !tbaa !17
  %51 = load i8*, i8** %5, align 4, !dbg !111, !tbaa !17
  %52 = getelementptr inbounds i8, i8* %51, i32 1, !dbg !111
  store i8* %52, i8** %5, align 4, !dbg !111, !tbaa !17
  br label %12, !dbg !77, !llvm.loop !112

; <label>:53:                                     ; preds = %33
  %54 = load i32, i32* %8, align 4, !dbg !113, !tbaa !13
  %55 = trunc i32 %54 to i16, !dbg !113
  %56 = load <128 x i8>, <128 x i8>* %7, align 128, !dbg !114, !tbaa !7
  %57 = mul i16 %55, 1, !dbg !114
  %58 = call <128 x i8> @llvm.genx.wrregioni.v128i8.v1i8.i16.i1(<128 x i8> %56, <1 x i8> zeroinitializer, i32 0, i32 1, i32 0, i16 %57, i32 undef, i1 true), !dbg !114
  store <128 x i8> %58, <128 x i8>* %7, align 128, !dbg !114, !tbaa !7
  %59 = load <128 x i8>, <128 x i8>* %7, align 128, !dbg !115, !tbaa !7
  ret <128 x i8> %59, !dbg !116
}

; Function Attrs: alwaysinline inlinehint nounwind
define internal void @_ZN7details16_cm_print_formatILi128EEEv15cm_surfaceindexju2CMvbT__c(i32, i32, <128 x i8>) #20 comdat {
  %4 = alloca i32, align 4
  %5 = alloca i32, align 4
  %6 = alloca <128 x i8>, align 128
  %7 = alloca <8 x i32>, align 32
  store i32 %0, i32* %4, align 4, !tbaa !31
  store i32 %1, i32* %5, align 4, !tbaa !13
  store <128 x i8> %2, <128 x i8>* %6, align 128, !tbaa !7
  store <8 x i32> zeroinitializer, <8 x i32>* %7, align 32, !tbaa !7
  %8 = load <8 x i32>, <8 x i32>* %7, align 32, !tbaa !7
  %9 = call <8 x i32> @llvm.genx.wrregioni.v8i32.v1i32.i16.i1(<8 x i32> %8, <1 x i32> <i32 5>, i32 0, i32 1, i32 0, i16 0, i32 undef, i1 true)
  store <8 x i32> %9, <8 x i32>* %7, align 32, !tbaa !7
  %10 = load <8 x i32>, <8 x i32>* %7, align 32, !tbaa !7
  %11 = call <8 x i32> @llvm.genx.wrregioni.v8i32.v1i32.i16.i1(<8 x i32> %10, <1 x i32> zeroinitializer, i32 0, i32 1, i32 0, i16 4, i32 undef, i1 true)
  store <8 x i32> %11, <8 x i32>* %7, align 32, !tbaa !7
  %12 = load <8 x i32>, <8 x i32>* %7, align 32, !tbaa !7
  %13 = call <8 x i32> @llvm.genx.wrregioni.v8i32.v1i32.i16.i1(<8 x i32> %12, <1 x i32> <i32 128>, i32 0, i32 1, i32 0, i16 24, i32 undef, i1 true)
  store <8 x i32> %13, <8 x i32>* %7, align 32, !tbaa !7
  %14 = load i32, i32* %4, align 4, !tbaa !31
  %15 = load i32, i32* %5, align 4, !tbaa !13
  %16 = load <8 x i32>, <8 x i32>* %7, align 32, !tbaa !7
  call void @_Z5writeIjLi8EEv15cm_surfaceindexiu2CMvbT0__T_(i32 %14, i32 %15, <8 x i32> %16)
  %17 = load i32, i32* %5, align 4, !tbaa !13
  %18 = add i32 %17, 32
  store i32 %18, i32* %5, align 4, !tbaa !13
  %19 = load i32, i32* %4, align 4, !tbaa !31
  %20 = load i32, i32* %5, align 4, !tbaa !13
  %21 = load <128 x i8>, <128 x i8>* %6, align 128, !tbaa !7
  call void @_Z5writeIcLi128EEv15cm_surfaceindexiu2CMvbT0__T_(i32 %19, i32 %20, <128 x i8> %21)
  ret void
}

; Function Attrs: noinline nounwind
define internal void @__do_print_lz(i32, i8*, i32, i64, i32*, i32, i32, i32, i32) #26 !dbg !117 {
  %10 = alloca i32, align 4
  %11 = alloca i8*, align 4
  %12 = alloca i32, align 4
  %13 = alloca i64, align 8
  %14 = alloca i32*, align 4
  %15 = alloca i32, align 4
  %16 = alloca i32, align 4
  %17 = alloca i32, align 4
  %18 = alloca i32, align 4
  %19 = alloca i32, align 4
  %20 = alloca i32, align 4
  %21 = alloca <5 x i32>, align 32
  %22 = alloca %class.UniformWriter, align 32
  %23 = alloca %class.VaryingWriter, align 32
  store i32 %0, i32* %10, align 4, !tbaa !13
  store i8* %1, i8** %11, align 4, !tbaa !17
  store i32 %2, i32* %12, align 4, !tbaa !13
  store i64 %3, i64* %13, align 8, !tbaa !19
  store i32* %4, i32** %14, align 4, !tbaa !17
  store i32 %5, i32* %15, align 4, !tbaa !13
  store i32 %6, i32* %16, align 4, !tbaa !13
  store i32 %7, i32* %17, align 4, !tbaa !13
  store i32 %8, i32* %18, align 4, !tbaa !13
  %24 = call i64 @llvm.genx.print.buffer(), !dbg !118
  %25 = trunc i64 %24 to i32, !dbg !118
  store i32 %25, i32* %19, align 4, !dbg !119, !tbaa !13
  %26 = load i32, i32* %15, align 4, !dbg !120, !tbaa !13
  %27 = load i32, i32* %12, align 4, !dbg !121, !tbaa !13
  %28 = mul nsw i32 3, %27, !dbg !122
  %29 = load i32, i32* %16, align 4, !dbg !123, !tbaa !13
  %30 = mul nsw i32 %28, %29, !dbg !124
  %31 = add nsw i32 %26, %30, !dbg !125
  %32 = mul nsw i32 %31, 8, !dbg !126
  %33 = add nsw i32 4, %32, !dbg !127
  %34 = load i32, i32* %17, align 4, !dbg !128, !tbaa !13
  %35 = load i32, i32* %12, align 4, !dbg !129, !tbaa !13
  %36 = load i32, i32* %18, align 4, !dbg !130, !tbaa !13
  %37 = mul nsw i32 %35, %36, !dbg !131
  %38 = add nsw i32 %34, %37, !dbg !132
  %39 = mul nsw i32 %38, 4, !dbg !133
  %40 = add nsw i32 %33, %39, !dbg !134
  store i32 %40, i32* %20, align 4, !dbg !135, !tbaa !13
  %41 = load i32, i32* %19, align 4, !dbg !136, !tbaa !13
  %42 = insertelement <1 x i32> undef, i32 %41, i32 0, !dbg !136
  %43 = shufflevector <1 x i32> %42, <1 x i32> undef, <1 x i32> zeroinitializer, !dbg !136
  %44 = load i32, i32* %20, align 4, !dbg !137, !tbaa !13
  %45 = call i32 @_ZN7details25_cm_print_init_offset_oclEu2CMvb1_jj(<1 x i32> %43, i32 %44), !dbg !138
  %46 = load i32, i32* %19, align 4, !dbg !139, !tbaa !13
  %47 = add i32 %46, %45, !dbg !139
  store i32 %47, i32* %19, align 4, !dbg !139, !tbaa !13
  %48 = load i32, i32* %19, align 4, !dbg !140, !tbaa !13
  %49 = call <1 x i32> @_ZL11vector_castIjEu2CMvb1_T_S0_(i32 %48), !dbg !141
  %50 = load i32, i32* %10, align 4, !dbg !142, !tbaa !13
  %51 = call <1 x i32> @_ZL11vector_castIiEu2CMvb1_T_S0_(i32 %50), !dbg !143
  call void @_Z20cm_svm_scatter_writeIiLi1EEvu2CMvbT0__ju2CMvbT0__T_(<1 x i32> %49, <1 x i32> %51), !dbg !144
